Archive member included because of file (symbol)

C:/Espressif/ESP8266_SDK\lib\libmain.a(app_main.o)
                              (call_user_start)
C:/Espressif/ESP8266_SDK\lib\libmain.a(ets_timer.o)
                              C:/Espressif/ESP8266_SDK\lib\libmain.a(app_main.o) (ets_timer_arm_new)
C:/Espressif/ESP8266_SDK\lib\libmain.a(mem_manager.o)
                              C:/Espressif/ESP8266_SDK\lib\libmain.a(app_main.o) (pvPortMalloc)
C:/Espressif/ESP8266_SDK\lib\libmain.a(spi_flash.o)
                              C:/Espressif/ESP8266_SDK\lib\libmain.a(app_main.o) (spi_flash_read)
C:/Espressif/ESP8266_SDK\lib\libmain.a(user_interface.o)
                              C:/Espressif/ESP8266_SDK\lib\libmain.a(app_main.o) (done_cb)
C:/Espressif/ESP8266_SDK\lib\libmain.a(eagle_lib.o)
                              C:/Espressif/ESP8266_SDK\lib\libmain.a(user_interface.o) (ets_sprintf)
C:/Espressif/ESP8266_SDK\lib\libmain.a(eagle_lwip_if.o)
                              C:/Espressif/ESP8266_SDK\lib\libmain.a(user_interface.o) (eagle_lwip_getif)
c:/espressif/xtensa-lx106-elf/bin/../lib/gcc/xtensa-lx106-elf/4.8.2/../../../../xtensa-lx106-elf/lib\libc.a(memcpy.o)
                              C:/Espressif/ESP8266_SDK\lib\libmain.a(user_interface.o) (memcpy)
c:/espressif/xtensa-lx106-elf/bin/../lib/gcc/xtensa-lx106-elf/4.8.2\libgcc.a(_udivsi3.o)
                              C:/Espressif/ESP8266_SDK\lib\libmain.a(app_main.o) (__udivsi3)
c:/espressif/xtensa-lx106-elf/bin/../lib/gcc/xtensa-lx106-elf/4.8.2\libgcc.a(_umodsi3.o)
                              C:/Espressif/ESP8266_SDK\lib\libmain.a(eagle_lib.o) (__umodsi3)
c:/espressif/xtensa-lx106-elf/bin/../lib/gcc/xtensa-lx106-elf/4.8.2\libgcc.a(_muldi3.o)
                              C:/Espressif/ESP8266_SDK\lib\libmain.a(user_interface.o) (__muldi3)
c:/espressif/xtensa-lx106-elf/bin/../lib/gcc/xtensa-lx106-elf/4.8.2\libgcc.a(_umulsidi3.o)
                              c:/espressif/xtensa-lx106-elf/bin/../lib/gcc/xtensa-lx106-elf/4.8.2\libgcc.a(_muldi3.o) (__umulsidi3)
C:/Espressif/ESP8266_SDK\lib\libphy.a(phy.o)
                              C:/Espressif/ESP8266_SDK\lib\libmain.a(app_main.o) (phy_enable_agc)
C:/Espressif/ESP8266_SDK\lib\libphy.a(phy_chip_v6_ana.o)
                              C:/Espressif/ESP8266_SDK\lib\libmain.a(user_interface.o) (test_tout)
C:/Espressif/ESP8266_SDK\lib\libphy.a(phy_chip_v6.o)
                              C:/Espressif/ESP8266_SDK\lib\libphy.a(phy_chip_v6_ana.o) (g_phyFuns)
C:/Espressif/ESP8266_SDK\lib\libphy.a(phy_chip_v6_cal.o)
                              C:/Espressif/ESP8266_SDK\lib\libphy.a(phy_chip_v6.o) (loop_pwctrl_pwdet_error_accum_high_power)
C:/Espressif/ESP8266_SDK\lib\libphy.a(phy_chip_v6_unused.o)
                              C:/Espressif/ESP8266_SDK\lib\libphy.a(phy_chip_v6.o) (chip_v6_set_sense)
C:/Espressif/ESP8266_SDK\lib\libphy.a(phy_sleep.o)
                              C:/Espressif/ESP8266_SDK\lib\libphy.a(phy_chip_v6.o) (pm_set_sleep_cycles)
C:/Espressif/ESP8266_SDK\lib\libpp.a(lmac.o)
                              C:/Espressif/ESP8266_SDK\lib\libmain.a(app_main.o) (lmacInit)
C:/Espressif/ESP8266_SDK\lib\libpp.a(pm.o)
                              C:/Espressif/ESP8266_SDK\lib\libmain.a(user_interface.o) (pm_rtc_clock_cali_proc)
C:/Espressif/ESP8266_SDK\lib\libpp.a(pp.o)
                              C:/Espressif/ESP8266_SDK\lib\libpp.a(pm.o) (pend_flag_noise_check)
C:/Espressif/ESP8266_SDK\lib\libpp.a(rate_control.o)
                              C:/Espressif/ESP8266_SDK\lib\libpp.a(lmac.o) (RC_SetBasicRate)
C:/Espressif/ESP8266_SDK\lib\libpp.a(trc.o)
                              C:/Espressif/ESP8266_SDK\lib\libpp.a(lmac.o) (rcUpdateTxDone)
C:/Espressif/ESP8266_SDK\lib\libpp.a(wdev.o)
                              C:/Espressif/ESP8266_SDK\lib\libpp.a(pp.o) (wDevCtrl)
C:/Espressif/ESP8266_SDK\lib\libpp.a(esf_buf.o)
                              C:/Espressif/ESP8266_SDK\lib\libpp.a(wdev.o) (esf_rx_buf_alloc)
C:/Espressif/ESP8266_SDK\lib\libpp.a(if_hwctrl.o)
                              C:/Espressif/ESP8266_SDK\lib\libpp.a(pm.o) (ic_get_addr)
C:/Espressif/ESP8266_SDK\lib\libnet80211.a(ieee80211.o)
                              C:/Espressif/ESP8266_SDK\lib\libmain.a(app_main.o) (g_ic)
C:/Espressif/ESP8266_SDK\lib\libnet80211.a(ieee80211_crypto.o)
                              C:/Espressif/ESP8266_SDK\lib\libnet80211.a(ieee80211.o) (ieee80211_crypto_attach)
C:/Espressif/ESP8266_SDK\lib\libnet80211.a(ieee80211_ets.o)
                              C:/Espressif/ESP8266_SDK\lib\libpp.a(pm.o) (ieee80211_getmgtframe)
C:/Espressif/ESP8266_SDK\lib\libnet80211.a(ieee80211_hostap.o)
                              C:/Espressif/ESP8266_SDK\lib\libpp.a(pp.o) (TmpSTAAPCloseAP)
C:/Espressif/ESP8266_SDK\lib\libnet80211.a(ieee80211_ht.o)
                              C:/Espressif/ESP8266_SDK\lib\libmain.a(user_interface.o) (ieee80211_ht_attach)
C:/Espressif/ESP8266_SDK\lib\libnet80211.a(ieee80211_input.o)
                              C:/Espressif/ESP8266_SDK\lib\libnet80211.a(ieee80211_hostap.o) (ieee80211_decap)
C:/Espressif/ESP8266_SDK\lib\libnet80211.a(ieee80211_output.o)
                              C:/Espressif/ESP8266_SDK\lib\libmain.a(eagle_lwip_if.o) (ieee80211_output_pbuf)
C:/Espressif/ESP8266_SDK\lib\libnet80211.a(ieee80211_phy.o)
                              C:/Espressif/ESP8266_SDK\lib\libnet80211.a(ieee80211.o) (ieee80211_get_ratetable)
C:/Espressif/ESP8266_SDK\lib\libnet80211.a(ieee80211_power.o)
                              C:/Espressif/ESP8266_SDK\lib\libnet80211.a(ieee80211_hostap.o) (ieee80211_psq_init)
C:/Espressif/ESP8266_SDK\lib\libnet80211.a(ieee80211_proto.o)
                              C:/Espressif/ESP8266_SDK\lib\libpp.a(wdev.o) (ieee80211_addr_bcast)
C:/Espressif/ESP8266_SDK\lib\libnet80211.a(ieee80211_scan.o)
                              C:/Espressif/ESP8266_SDK\lib\libmain.a(user_interface.o) (scannum)
C:/Espressif/ESP8266_SDK\lib\libnet80211.a(ieee80211_sta.o)
                              C:/Espressif/ESP8266_SDK\lib\libmain.a(user_interface.o) (ieee80211_sta_new_state)
C:/Espressif/ESP8266_SDK\lib\libnet80211.a(wl_chm.o)
                              C:/Espressif/ESP8266_SDK\lib\libnet80211.a(ieee80211.o) (chm_init)
C:/Espressif/ESP8266_SDK\lib\libnet80211.a(wl_cnx.o)
                              C:/Espressif/ESP8266_SDK\lib\libmain.a(user_interface.o) (sta_con_timer)
C:/Espressif/ESP8266_SDK\lib\libnet80211.a(ieee80211_action.o)
                              C:/Espressif/ESP8266_SDK\lib\libnet80211.a(ieee80211_ht.o) (ieee80211_send_action_register)
C:/Espressif/ESP8266_SDK\lib\liblwip.a(dhcp.o)
                              C:/Espressif/ESP8266_SDK\lib\libnet80211.a(wl_cnx.o) (dhcp_release)
C:/Espressif/ESP8266_SDK\lib\liblwip.a(dhcpserver.o)
                              C:/Espressif/ESP8266_SDK\lib\libmain.a(user_interface.o) (dhcps_start)
C:/Espressif/ESP8266_SDK\lib\liblwip.a(dns.o)
                              C:/Espressif/ESP8266_SDK\lib\liblwip.a(dhcp.o) (dns_setserver)
C:/Espressif/ESP8266_SDK\lib\liblwip.a(etharp.o)
                              C:/Espressif/ESP8266_SDK\lib\libmain.a(eagle_lwip_if.o) (etharp_output)
C:/Espressif/ESP8266_SDK\lib\liblwip.a(init.o)
                              C:/Espressif/ESP8266_SDK\lib\libmain.a(app_main.o) (lwip_init)
C:/Espressif/ESP8266_SDK\lib\liblwip.a(ip_addr.o)
                              C:/Espressif/ESP8266_SDK\lib\liblwip.a(dhcp.o) (ip_addr_any)
C:/Espressif/ESP8266_SDK\lib\liblwip.a(ip.o)
                              C:/Espressif/ESP8266_SDK\lib\liblwip.a(etharp.o) (ip_input)
C:/Espressif/ESP8266_SDK\lib\liblwip.a(memp.o)
                              C:/Espressif/ESP8266_SDK\lib\liblwip.a(etharp.o) (memp_sizes)
C:/Espressif/ESP8266_SDK\lib\liblwip.a(netif.o)
                              C:/Espressif/ESP8266_SDK\lib\liblwip.a(dhcp.o) (netif_list)
C:/Espressif/ESP8266_SDK\lib\liblwip.a(pbuf.o)
                              C:/Espressif/ESP8266_SDK\lib\libnet80211.a(ieee80211_hostap.o) (pbuf_alloc)
C:/Espressif/ESP8266_SDK\lib\liblwip.a(raw.o)
                              C:/Espressif/ESP8266_SDK\lib\liblwip.a(ip.o) (raw_input)
C:/Espressif/ESP8266_SDK\lib\liblwip.a(tcp_in.o)
                              C:/Espressif/ESP8266_SDK\lib\liblwip.a(ip.o) (tcp_input)
C:/Espressif/ESP8266_SDK\lib\liblwip.a(tcp.o)
                              C:/Espressif/ESP8266_SDK\lib\liblwip.a(netif.o) (tcp_active_pcbs)
C:/Espressif/ESP8266_SDK\lib\liblwip.a(tcp_out.o)
                              C:/Espressif/ESP8266_SDK\lib\liblwip.a(tcp.o) (tcp_send_fin)
C:/Espressif/ESP8266_SDK\lib\liblwip.a(timers.o)
                              C:/Espressif/ESP8266_SDK\lib\liblwip.a(tcp_in.o) (tcp_timer_needed)
C:/Espressif/ESP8266_SDK\lib\liblwip.a(udp.o)
                              C:/Espressif/ESP8266_SDK\lib\liblwip.a(ip.o) (udp_input)
C:/Espressif/ESP8266_SDK\lib\liblwip.a(icmp.o)
                              C:/Espressif/ESP8266_SDK\lib\liblwip.a(ip.o) (icmp_input)
C:/Espressif/ESP8266_SDK\lib\liblwip.a(igmp.o)
                              C:/Espressif/ESP8266_SDK\lib\liblwip.a(init.o) (igmp_init)
C:/Espressif/ESP8266_SDK\lib\liblwip.a(inet_chksum.o)
                              C:/Espressif/ESP8266_SDK\lib\liblwip.a(tcp_in.o) (inet_chksum_pseudo)
C:/Espressif/ESP8266_SDK\lib\libwpa.a(ap_config.o)
                              C:/Espressif/ESP8266_SDK\lib\libnet80211.a(ieee80211_hostap.o) (hostapd_setup_wpa_psk)
C:/Espressif/ESP8266_SDK\lib\libwpa.a(common.o)
                              C:/Espressif/ESP8266_SDK\lib\libmain.a(user_interface.o) (hexstr2bin)
C:/Espressif/ESP8266_SDK\lib\libwpa.a(os_xtensa.o)
                              C:/Espressif/ESP8266_SDK\lib\libwpa.a(common.o) (os_get_time)
C:/Espressif/ESP8266_SDK\lib\libwpa.a(wpa_auth.o)
                              C:/Espressif/ESP8266_SDK\lib\libnet80211.a(ieee80211_hostap.o) (wpa_init)
C:/Espressif/ESP8266_SDK\lib\libwpa.a(wpa_auth_ie.o)
                              C:/Espressif/ESP8266_SDK\lib\libwpa.a(wpa_auth.o) (wpa_auth_gen_wpa_ie)
C:/Espressif/ESP8266_SDK\lib\libwpa.a(wpa.o)
                              C:/Espressif/ESP8266_SDK\lib\libnet80211.a(ieee80211_sta.o) (wpa_sm_rx_eapol)
C:/Espressif/ESP8266_SDK\lib\libwpa.a(wpa_common.o)
                              C:/Espressif/ESP8266_SDK\lib\libwpa.a(wpa_auth_ie.o) (wpa_parse_wpa_ie_rsn)
C:/Espressif/ESP8266_SDK\lib\libwpa.a(wpa_debug.o)
                              C:/Espressif/ESP8266_SDK\lib\libwpa.a(wpa_auth.o) (eloop_cancel_timeout)
C:/Espressif/ESP8266_SDK\lib\libwpa.a(wpa_ie.o)
                              C:/Espressif/ESP8266_SDK\lib\libnet80211.a(ieee80211_scan.o) (wpa_parse_wpa_ie)
C:/Espressif/ESP8266_SDK\lib\libwpa.a(wpa_main.o)
                              C:/Espressif/ESP8266_SDK\lib\libnet80211.a(wl_cnx.o) (ppInstallKey)
C:/Espressif/ESP8266_SDK\lib\libwpa.a(wpas_glue.o)
                              C:/Espressif/ESP8266_SDK\lib\libwpa.a(wpa.o) (wpa_sm_alloc_eapol)
C:/Espressif/ESP8266_SDK\lib\libwpa.a(aes-wrap.o)
                              C:/Espressif/ESP8266_SDK\lib\libwpa.a(wpa_auth.o) (aes_wrap)
C:/Espressif/ESP8266_SDK\lib\libwpa.a(aes-internal-enc.o)
                              C:/Espressif/ESP8266_SDK\lib\libwpa.a(aes-wrap.o) (aes_encrypt_init)
c:/espressif/xtensa-lx106-elf/bin/../lib/gcc/xtensa-lx106-elf/4.8.2/../../../../xtensa-lx106-elf/lib\libc.a(memset.o)
                              C:/Espressif/ESP8266_SDK\lib\libnet80211.a(ieee80211_ht.o) (memset)
c:/espressif/xtensa-lx106-elf/bin/../lib/gcc/xtensa-lx106-elf/4.8.2/../../../../xtensa-lx106-elf/lib\libc.a(rand.o)
                              C:/Espressif/ESP8266_SDK\lib\libpp.a(lmac.o) (rand)
c:/espressif/xtensa-lx106-elf/bin/../lib/gcc/xtensa-lx106-elf/4.8.2/../../../../xtensa-lx106-elf/lib\libc.a(strlen.o)
                              C:/Espressif/ESP8266_SDK\lib\liblwip.a(dns.o) (strlen)
c:/espressif/xtensa-lx106-elf/bin/../lib/gcc/xtensa-lx106-elf/4.8.2/../../../../xtensa-lx106-elf/lib\libc.a(impure.o)
                              c:/espressif/xtensa-lx106-elf/bin/../lib/gcc/xtensa-lx106-elf/4.8.2/../../../../xtensa-lx106-elf/lib\libc.a(rand.o) (_impure_ptr)
c:/espressif/xtensa-lx106-elf/bin/../lib/gcc/xtensa-lx106-elf/4.8.2\libgcc.a(_divsi3.o)
                              C:/Espressif/ESP8266_SDK\lib\libphy.a(phy_chip_v6_ana.o) (__divsi3)
c:/espressif/xtensa-lx106-elf/bin/../lib/gcc/xtensa-lx106-elf/4.8.2\libgcc.a(_modsi3.o)
                              C:/Espressif/ESP8266_SDK\lib\libphy.a(phy_chip_v6.o) (__modsi3)
c:/espressif/xtensa-lx106-elf/bin/../lib/gcc/xtensa-lx106-elf/4.8.2\libgcc.a(_ashrdi3.o)
                              C:/Espressif/ESP8266_SDK\lib\libphy.a(phy_chip_v6.o) (__ashrdi3)
c:/espressif/xtensa-lx106-elf/bin/../lib/gcc/xtensa-lx106-elf/4.8.2\libgcc.a(_addsubsf3.o)
                              C:/Espressif/ESP8266_SDK\lib\libphy.a(phy_chip_v6_ana.o) (__addsf3)
c:/espressif/xtensa-lx106-elf/bin/../lib/gcc/xtensa-lx106-elf/4.8.2\libgcc.a(_mulsf3.o)
                              C:/Espressif/ESP8266_SDK\lib\libphy.a(phy_chip_v6_ana.o) (__mulsf3)
c:/espressif/xtensa-lx106-elf/bin/../lib/gcc/xtensa-lx106-elf/4.8.2\libgcc.a(_divsf3.o)
                              C:/Espressif/ESP8266_SDK\lib\libphy.a(phy_chip_v6_ana.o) (__divsf3)
c:/espressif/xtensa-lx106-elf/bin/../lib/gcc/xtensa-lx106-elf/4.8.2\libgcc.a(_fixsfsi.o)
                              C:/Espressif/ESP8266_SDK\lib\libphy.a(phy_chip_v6.o) (__fixsfsi)
c:/espressif/xtensa-lx106-elf/bin/../lib/gcc/xtensa-lx106-elf/4.8.2\libgcc.a(_fixunssfsi.o)
                              C:/Espressif/ESP8266_SDK\lib\libphy.a(phy_chip_v6_ana.o) (__fixunssfsi)
c:/espressif/xtensa-lx106-elf/bin/../lib/gcc/xtensa-lx106-elf/4.8.2\libgcc.a(_floatsisf.o)
                              C:/Espressif/ESP8266_SDK\lib\libphy.a(phy_chip_v6.o) (__floatunsisf)
c:/espressif/xtensa-lx106-elf/bin/../lib/gcc/xtensa-lx106-elf/4.8.2\libgcc.a(_muldf3.o)
                              C:/Espressif/ESP8266_SDK\lib\libphy.a(phy_chip_v6.o) (__muldf3)
c:/espressif/xtensa-lx106-elf/bin/../lib/gcc/xtensa-lx106-elf/4.8.2\libgcc.a(_divdf3.o)
                              C:/Espressif/ESP8266_SDK\lib\libphy.a(phy_chip_v6_ana.o) (__divdf3)
c:/espressif/xtensa-lx106-elf/bin/../lib/gcc/xtensa-lx106-elf/4.8.2\libgcc.a(_fixdfsi.o)
                              C:/Espressif/ESP8266_SDK\lib\libphy.a(phy_chip_v6.o) (__fixdfsi)
c:/espressif/xtensa-lx106-elf/bin/../lib/gcc/xtensa-lx106-elf/4.8.2\libgcc.a(_floatsidf.o)
                              C:/Espressif/ESP8266_SDK\lib\libphy.a(phy_chip_v6_ana.o) (__floatunsidf)
c:/espressif/xtensa-lx106-elf/bin/../lib/gcc/xtensa-lx106-elf/4.8.2\libgcc.a(_truncdfsf2.o)
                              C:/Espressif/ESP8266_SDK\lib\libphy.a(phy_chip_v6_ana.o) (__truncdfsf2)
c:/espressif/xtensa-lx106-elf/bin/../lib/gcc/xtensa-lx106-elf/4.8.2\libgcc.a(_popcountsi2.o)
                              C:/Espressif/ESP8266_SDK\lib\libpp.a(trc.o) (__popcountsi2)
c:/espressif/xtensa-lx106-elf/bin/../lib/gcc/xtensa-lx106-elf/4.8.2\libgcc.a(_divdi3.o)
                              C:/Espressif/ESP8266_SDK\lib\libphy.a(phy_chip_v6_cal.o) (__divdi3)
c:/espressif/xtensa-lx106-elf/bin/../lib/gcc/xtensa-lx106-elf/4.8.2\libgcc.a(_umoddi3.o)
                              C:/Espressif/ESP8266_SDK\lib\libpp.a(pm.o) (__umoddi3)
c:/espressif/xtensa-lx106-elf/bin/../lib/gcc/xtensa-lx106-elf/4.8.2\libgcc.a(_popcount_tab.o)
                              c:/espressif/xtensa-lx106-elf/bin/../lib/gcc/xtensa-lx106-elf/4.8.2\libgcc.a(_popcountsi2.o) (__popcount_tab)
C:/Espressif/ESP8266_SDK\lib\libnet80211.a(ieee80211_crypto_ccmp.o)
                              C:/Espressif/ESP8266_SDK\lib\libwpa.a(wpa_auth.o) (ccmp)
C:/Espressif/ESP8266_SDK\lib\libnet80211.a(ieee80211_crypto_tkip.o)
                              C:/Espressif/ESP8266_SDK\lib\libwpa.a(wpa_auth.o) (tkip)
C:/Espressif/ESP8266_SDK\lib\libnet80211.a(ieee80211_crypto_wep.o)
                              C:/Espressif/ESP8266_SDK\lib\libwpa.a(wpa_auth.o) (wep)

Discarded input sections

 .literal.user_init
                0x00000000        0x0 main.o
 .text          0x00000000        0x0 main.o
 .data          0x00000000        0x0 main.o
 .bss           0x00000000        0x0 main.o
 .rodata.bmptk_version
                0x00000000        0xe main.o
 .xt.lit        0x00000000        0x8 main.o
 .xt.prop       0x00000000       0x30 main.o
 .text          0x00000000        0x0 bmptk_interface.o
 .data          0x00000000        0x0 bmptk_interface.o
 .bss           0x00000000        0x0 bmptk_interface.o
 .rodata.bmptk_version
                0x00000000        0xe bmptk_interface.o
 .xt.prop       0x00000000        0xc bmptk_interface.o
 .literal       0x00000000        0x0 C:/Espressif/ESP8266_SDK\lib\libmain.a(app_main.o)
 .irom0.literal
                0x00000000        0x0 C:/Espressif/ESP8266_SDK\lib\libmain.a(app_main.o)
 .xt.lit        0x00000000       0x68 C:/Espressif/ESP8266_SDK\lib\libmain.a(app_main.o)
 .xt.prop       0x00000000      0x4c8 C:/Espressif/ESP8266_SDK\lib\libmain.a(app_main.o)
 .literal       0x00000000        0x0 C:/Espressif/ESP8266_SDK\lib\libmain.a(ets_timer.o)
 .data          0x00000000        0x0 C:/Espressif/ESP8266_SDK\lib\libmain.a(ets_timer.o)
 .bss           0x00000000        0x0 C:/Espressif/ESP8266_SDK\lib\libmain.a(ets_timer.o)
 .xt.lit        0x00000000        0x8 C:/Espressif/ESP8266_SDK\lib\libmain.a(ets_timer.o)
 .xt.prop       0x00000000       0xcc C:/Espressif/ESP8266_SDK\lib\libmain.a(ets_timer.o)
 .irom0.literal
                0x00000000        0x0 C:/Espressif/ESP8266_SDK\lib\libmain.a(mem_manager.o)
 .literal       0x00000000        0x0 C:/Espressif/ESP8266_SDK\lib\libmain.a(mem_manager.o)
 .data          0x00000000        0x0 C:/Espressif/ESP8266_SDK\lib\libmain.a(mem_manager.o)
 .xt.lit        0x00000000       0x40 C:/Espressif/ESP8266_SDK\lib\libmain.a(mem_manager.o)
 .xt.prop       0x00000000      0x270 C:/Espressif/ESP8266_SDK\lib\libmain.a(mem_manager.o)
 .literal       0x00000000        0x0 C:/Espressif/ESP8266_SDK\lib\libmain.a(spi_flash.o)
 .data          0x00000000        0x0 C:/Espressif/ESP8266_SDK\lib\libmain.a(spi_flash.o)
 .bss           0x00000000        0x0 C:/Espressif/ESP8266_SDK\lib\libmain.a(spi_flash.o)
 .xt.lit        0x00000000       0x20 C:/Espressif/ESP8266_SDK\lib\libmain.a(spi_flash.o)
 .xt.prop       0x00000000       0xe4 C:/Espressif/ESP8266_SDK\lib\libmain.a(spi_flash.o)
 .irom0.literal
                0x00000000        0x0 C:/Espressif/ESP8266_SDK\lib\libmain.a(user_interface.o)
 .literal       0x00000000        0x0 C:/Espressif/ESP8266_SDK\lib\libmain.a(user_interface.o)
 .xt.lit        0x00000000      0x258 C:/Espressif/ESP8266_SDK\lib\libmain.a(user_interface.o)
 .xt.prop       0x00000000     0x16ec C:/Espressif/ESP8266_SDK\lib\libmain.a(user_interface.o)
 .irom0.literal
                0x00000000        0x0 C:/Espressif/ESP8266_SDK\lib\libmain.a(eagle_lib.o)
 .text          0x00000000        0x0 C:/Espressif/ESP8266_SDK\lib\libmain.a(eagle_lib.o)
 .data          0x00000000        0x0 C:/Espressif/ESP8266_SDK\lib\libmain.a(eagle_lib.o)
 .bss           0x00000000        0x0 C:/Espressif/ESP8266_SDK\lib\libmain.a(eagle_lib.o)
 .xt.lit        0x00000000       0x18 C:/Espressif/ESP8266_SDK\lib\libmain.a(eagle_lib.o)
 .xt.prop       0x00000000      0x60c C:/Espressif/ESP8266_SDK\lib\libmain.a(eagle_lib.o)
 .irom0.literal
                0x00000000        0x0 C:/Espressif/ESP8266_SDK\lib\libmain.a(eagle_lwip_if.o)
 .text          0x00000000        0x0 C:/Espressif/ESP8266_SDK\lib\libmain.a(eagle_lwip_if.o)
 .data          0x00000000        0x0 C:/Espressif/ESP8266_SDK\lib\libmain.a(eagle_lwip_if.o)
 .xt.lit        0x00000000       0x10 C:/Espressif/ESP8266_SDK\lib\libmain.a(eagle_lwip_if.o)
 .xt.prop       0x00000000      0x15c C:/Espressif/ESP8266_SDK\lib\libmain.a(eagle_lwip_if.o)
 .data          0x00000000        0x0 c:/espressif/xtensa-lx106-elf/bin/../lib/gcc/xtensa-lx106-elf/4.8.2/../../../../xtensa-lx106-elf/lib\libc.a(memcpy.o)
 .bss           0x00000000        0x0 c:/espressif/xtensa-lx106-elf/bin/../lib/gcc/xtensa-lx106-elf/4.8.2/../../../../xtensa-lx106-elf/lib\libc.a(memcpy.o)
 .xt.prop       0x00000000      0x1c8 c:/espressif/xtensa-lx106-elf/bin/../lib/gcc/xtensa-lx106-elf/4.8.2/../../../../xtensa-lx106-elf/lib\libc.a(memcpy.o)
 .data          0x00000000        0x0 c:/espressif/xtensa-lx106-elf/bin/../lib/gcc/xtensa-lx106-elf/4.8.2\libgcc.a(_udivsi3.o)
 .bss           0x00000000        0x0 c:/espressif/xtensa-lx106-elf/bin/../lib/gcc/xtensa-lx106-elf/4.8.2\libgcc.a(_udivsi3.o)
 .xt.prop       0x00000000       0x9c c:/espressif/xtensa-lx106-elf/bin/../lib/gcc/xtensa-lx106-elf/4.8.2\libgcc.a(_udivsi3.o)
 .data          0x00000000        0x0 c:/espressif/xtensa-lx106-elf/bin/../lib/gcc/xtensa-lx106-elf/4.8.2\libgcc.a(_umodsi3.o)
 .bss           0x00000000        0x0 c:/espressif/xtensa-lx106-elf/bin/../lib/gcc/xtensa-lx106-elf/4.8.2\libgcc.a(_umodsi3.o)
 .xt.prop       0x00000000       0x78 c:/espressif/xtensa-lx106-elf/bin/../lib/gcc/xtensa-lx106-elf/4.8.2\libgcc.a(_umodsi3.o)
 .data          0x00000000        0x0 c:/espressif/xtensa-lx106-elf/bin/../lib/gcc/xtensa-lx106-elf/4.8.2\libgcc.a(_muldi3.o)
 .bss           0x00000000        0x0 c:/espressif/xtensa-lx106-elf/bin/../lib/gcc/xtensa-lx106-elf/4.8.2\libgcc.a(_muldi3.o)
 .xt.lit        0x00000000        0x8 c:/espressif/xtensa-lx106-elf/bin/../lib/gcc/xtensa-lx106-elf/4.8.2\libgcc.a(_muldi3.o)
 .xt.prop       0x00000000       0x30 c:/espressif/xtensa-lx106-elf/bin/../lib/gcc/xtensa-lx106-elf/4.8.2\libgcc.a(_muldi3.o)
 .data          0x00000000        0x0 c:/espressif/xtensa-lx106-elf/bin/../lib/gcc/xtensa-lx106-elf/4.8.2\libgcc.a(_umulsidi3.o)
 .bss           0x00000000        0x0 c:/espressif/xtensa-lx106-elf/bin/../lib/gcc/xtensa-lx106-elf/4.8.2\libgcc.a(_umulsidi3.o)
 .xt.prop       0x00000000       0x3c c:/espressif/xtensa-lx106-elf/bin/../lib/gcc/xtensa-lx106-elf/4.8.2\libgcc.a(_umulsidi3.o)
 .irom0.literal
                0x00000000        0x0 C:/Espressif/ESP8266_SDK\lib\libphy.a(phy.o)
 .literal       0x00000000        0x0 C:/Espressif/ESP8266_SDK\lib\libphy.a(phy.o)
 .data          0x00000000        0x0 C:/Espressif/ESP8266_SDK\lib\libphy.a(phy.o)
 .xt.lit        0x00000000       0x60 C:/Espressif/ESP8266_SDK\lib\libphy.a(phy.o)
 .xt.prop       0x00000000      0x1bc C:/Espressif/ESP8266_SDK\lib\libphy.a(phy.o)
 .irom0.literal
                0x00000000        0x0 C:/Espressif/ESP8266_SDK\lib\libphy.a(phy_chip_v6_ana.o)
 .text          0x00000000        0x0 C:/Espressif/ESP8266_SDK\lib\libphy.a(phy_chip_v6_ana.o)
 .data          0x00000000        0x0 C:/Espressif/ESP8266_SDK\lib\libphy.a(phy_chip_v6_ana.o)
 .bss           0x00000000        0x0 C:/Espressif/ESP8266_SDK\lib\libphy.a(phy_chip_v6_ana.o)
 .rodata        0x00000000        0x8 C:/Espressif/ESP8266_SDK\lib\libphy.a(phy_chip_v6_ana.o)
 .xt.lit        0x00000000       0xb0 C:/Espressif/ESP8266_SDK\lib\libphy.a(phy_chip_v6_ana.o)
 .xt.prop       0x00000000      0xb4c C:/Espressif/ESP8266_SDK\lib\libphy.a(phy_chip_v6_ana.o)
 .irom0.literal
                0x00000000        0x0 C:/Espressif/ESP8266_SDK\lib\libphy.a(phy_chip_v6.o)
 .literal       0x00000000        0x0 C:/Espressif/ESP8266_SDK\lib\libphy.a(phy_chip_v6.o)
 .xt.lit        0x00000000      0x188 C:/Espressif/ESP8266_SDK\lib\libphy.a(phy_chip_v6.o)
 .xt.prop       0x00000000     0x19c8 C:/Espressif/ESP8266_SDK\lib\libphy.a(phy_chip_v6.o)
 .irom0.literal
                0x00000000        0x0 C:/Espressif/ESP8266_SDK\lib\libphy.a(phy_chip_v6_cal.o)
 .text          0x00000000        0x0 C:/Espressif/ESP8266_SDK\lib\libphy.a(phy_chip_v6_cal.o)
 .xt.lit        0x00000000       0xe0 C:/Espressif/ESP8266_SDK\lib\libphy.a(phy_chip_v6_cal.o)
 .xt.prop       0x00000000      0xffc C:/Espressif/ESP8266_SDK\lib\libphy.a(phy_chip_v6_cal.o)
 .irom0.literal
                0x00000000        0x0 C:/Espressif/ESP8266_SDK\lib\libphy.a(phy_chip_v6_unused.o)
 .text          0x00000000        0x0 C:/Espressif/ESP8266_SDK\lib\libphy.a(phy_chip_v6_unused.o)
 .data          0x00000000        0x0 C:/Espressif/ESP8266_SDK\lib\libphy.a(phy_chip_v6_unused.o)
 .bss           0x00000000        0x0 C:/Espressif/ESP8266_SDK\lib\libphy.a(phy_chip_v6_unused.o)
 .xt.lit        0x00000000       0x28 C:/Espressif/ESP8266_SDK\lib\libphy.a(phy_chip_v6_unused.o)
 .xt.prop       0x00000000      0x168 C:/Espressif/ESP8266_SDK\lib\libphy.a(phy_chip_v6_unused.o)
 .irom0.literal
                0x00000000        0x0 C:/Espressif/ESP8266_SDK\lib\libphy.a(phy_sleep.o)
 .literal       0x00000000        0x0 C:/Espressif/ESP8266_SDK\lib\libphy.a(phy_sleep.o)
 .xt.lit        0x00000000       0xd0 C:/Espressif/ESP8266_SDK\lib\libphy.a(phy_sleep.o)
 .xt.prop       0x00000000      0x84c C:/Espressif/ESP8266_SDK\lib\libphy.a(phy_sleep.o)
 .literal       0x00000000        0x0 C:/Espressif/ESP8266_SDK\lib\libpp.a(lmac.o)
 .irom0.literal
                0x00000000        0x0 C:/Espressif/ESP8266_SDK\lib\libpp.a(lmac.o)
 .data          0x00000000        0x0 C:/Espressif/ESP8266_SDK\lib\libpp.a(lmac.o)
 .xt.lit        0x00000000      0x108 C:/Espressif/ESP8266_SDK\lib\libpp.a(lmac.o)
 .xt.prop       0x00000000     0x108c C:/Espressif/ESP8266_SDK\lib\libpp.a(lmac.o)
 .irom0.literal
                0x00000000        0x0 C:/Espressif/ESP8266_SDK\lib\libpp.a(pm.o)
 .text          0x00000000        0x0 C:/Espressif/ESP8266_SDK\lib\libpp.a(pm.o)
 .xt.lit        0x00000000      0x190 C:/Espressif/ESP8266_SDK\lib\libpp.a(pm.o)
 .xt.prop       0x00000000     0x1230 C:/Espressif/ESP8266_SDK\lib\libpp.a(pm.o)
 .literal       0x00000000        0x0 C:/Espressif/ESP8266_SDK\lib\libpp.a(pp.o)
 .irom0.literal
                0x00000000        0x0 C:/Espressif/ESP8266_SDK\lib\libpp.a(pp.o)
 .xt.lit        0x00000000      0x150 C:/Espressif/ESP8266_SDK\lib\libpp.a(pp.o)
 .xt.prop       0x00000000     0x123c C:/Espressif/ESP8266_SDK\lib\libpp.a(pp.o)
 .literal       0x00000000        0x0 C:/Espressif/ESP8266_SDK\lib\libpp.a(rate_control.o)
 .irom0.literal
                0x00000000        0x0 C:/Espressif/ESP8266_SDK\lib\libpp.a(rate_control.o)
 .xt.lit        0x00000000       0x38 C:/Espressif/ESP8266_SDK\lib\libpp.a(rate_control.o)
 .xt.prop       0x00000000      0x1d4 C:/Espressif/ESP8266_SDK\lib\libpp.a(rate_control.o)
 .literal       0x00000000        0x0 C:/Espressif/ESP8266_SDK\lib\libpp.a(trc.o)
 .irom0.literal
                0x00000000        0x0 C:/Espressif/ESP8266_SDK\lib\libpp.a(trc.o)
 .xt.lit        0x00000000       0x90 C:/Espressif/ESP8266_SDK\lib\libpp.a(trc.o)
 .xt.prop       0x00000000      0xd8c C:/Espressif/ESP8266_SDK\lib\libpp.a(trc.o)
 .literal       0x00000000        0x0 C:/Espressif/ESP8266_SDK\lib\libpp.a(wdev.o)
 .irom0.literal
                0x00000000        0x0 C:/Espressif/ESP8266_SDK\lib\libpp.a(wdev.o)
 .xt.lit        0x00000000      0x128 C:/Espressif/ESP8266_SDK\lib\libpp.a(wdev.o)
 .xt.prop       0x00000000      0xc3c C:/Espressif/ESP8266_SDK\lib\libpp.a(wdev.o)
 .literal       0x00000000        0x0 C:/Espressif/ESP8266_SDK\lib\libpp.a(esf_buf.o)
 .irom0.literal
                0x00000000        0x0 C:/Espressif/ESP8266_SDK\lib\libpp.a(esf_buf.o)
 .data          0x00000000        0x0 C:/Espressif/ESP8266_SDK\lib\libpp.a(esf_buf.o)
 .xt.lit        0x00000000       0x20 C:/Espressif/ESP8266_SDK\lib\libpp.a(esf_buf.o)
 .xt.prop       0x00000000      0x270 C:/Espressif/ESP8266_SDK\lib\libpp.a(esf_buf.o)
 .irom0.literal
                0x00000000        0x0 C:/Espressif/ESP8266_SDK\lib\libpp.a(if_hwctrl.o)
 .text          0x00000000        0x0 C:/Espressif/ESP8266_SDK\lib\libpp.a(if_hwctrl.o)
 .data          0x00000000        0x0 C:/Espressif/ESP8266_SDK\lib\libpp.a(if_hwctrl.o)
 .xt.lit        0x00000000       0x90 C:/Espressif/ESP8266_SDK\lib\libpp.a(if_hwctrl.o)
 .xt.prop       0x00000000      0x3a8 C:/Espressif/ESP8266_SDK\lib\libpp.a(if_hwctrl.o)
 .irom0.literal
                0x00000000        0x0 C:/Espressif/ESP8266_SDK\lib\libnet80211.a(ieee80211.o)
 .text          0x00000000        0x0 C:/Espressif/ESP8266_SDK\lib\libnet80211.a(ieee80211.o)
 .data          0x00000000        0x0 C:/Espressif/ESP8266_SDK\lib\libnet80211.a(ieee80211.o)
 .rodata        0x00000000        0x8 C:/Espressif/ESP8266_SDK\lib\libnet80211.a(ieee80211.o)
 .xt.lit        0x00000000       0x30 C:/Espressif/ESP8266_SDK\lib\libnet80211.a(ieee80211.o)
 .xt.prop       0x00000000      0x2ac C:/Espressif/ESP8266_SDK\lib\libnet80211.a(ieee80211.o)
 .irom0.literal
                0x00000000        0x0 C:/Espressif/ESP8266_SDK\lib\libnet80211.a(ieee80211_crypto.o)
 .text          0x00000000        0x0 C:/Espressif/ESP8266_SDK\lib\libnet80211.a(ieee80211_crypto.o)
 .data          0x00000000        0x0 C:/Espressif/ESP8266_SDK\lib\libnet80211.a(ieee80211_crypto.o)
 .bss           0x00000000        0x0 C:/Espressif/ESP8266_SDK\lib\libnet80211.a(ieee80211_crypto.o)
 .xt.lit        0x00000000       0x10 C:/Espressif/ESP8266_SDK\lib\libnet80211.a(ieee80211_crypto.o)
 .xt.prop       0x00000000      0x114 C:/Espressif/ESP8266_SDK\lib\libnet80211.a(ieee80211_crypto.o)
 .irom0.literal
                0x00000000        0x0 C:/Espressif/ESP8266_SDK\lib\libnet80211.a(ieee80211_ets.o)
 .text          0x00000000        0x0 C:/Espressif/ESP8266_SDK\lib\libnet80211.a(ieee80211_ets.o)
 .data          0x00000000        0x0 C:/Espressif/ESP8266_SDK\lib\libnet80211.a(ieee80211_ets.o)
 .bss           0x00000000        0x0 C:/Espressif/ESP8266_SDK\lib\libnet80211.a(ieee80211_ets.o)
 .xt.lit        0x00000000        0x8 C:/Espressif/ESP8266_SDK\lib\libnet80211.a(ieee80211_ets.o)
 .xt.prop       0x00000000       0x54 C:/Espressif/ESP8266_SDK\lib\libnet80211.a(ieee80211_ets.o)
 .literal       0x00000000        0x0 C:/Espressif/ESP8266_SDK\lib\libnet80211.a(ieee80211_hostap.o)
 .irom0.literal
                0x00000000        0x0 C:/Espressif/ESP8266_SDK\lib\libnet80211.a(ieee80211_hostap.o)
 .data          0x00000000        0x0 C:/Espressif/ESP8266_SDK\lib\libnet80211.a(ieee80211_hostap.o)
 .xt.lit        0x00000000       0x70 C:/Espressif/ESP8266_SDK\lib\libnet80211.a(ieee80211_hostap.o)
 .xt.prop       0x00000000      0x90c C:/Espressif/ESP8266_SDK\lib\libnet80211.a(ieee80211_hostap.o)
 .irom0.literal
                0x00000000        0x0 C:/Espressif/ESP8266_SDK\lib\libnet80211.a(ieee80211_ht.o)
 .text          0x00000000        0x0 C:/Espressif/ESP8266_SDK\lib\libnet80211.a(ieee80211_ht.o)
 .data          0x00000000        0x0 C:/Espressif/ESP8266_SDK\lib\libnet80211.a(ieee80211_ht.o)
 .bss           0x00000000        0x0 C:/Espressif/ESP8266_SDK\lib\libnet80211.a(ieee80211_ht.o)
 .xt.lit        0x00000000       0x68 C:/Espressif/ESP8266_SDK\lib\libnet80211.a(ieee80211_ht.o)
 .xt.prop       0x00000000      0x60c C:/Espressif/ESP8266_SDK\lib\libnet80211.a(ieee80211_ht.o)
 .irom0.literal
                0x00000000        0x0 C:/Espressif/ESP8266_SDK\lib\libnet80211.a(ieee80211_input.o)
 .literal       0x00000000        0x0 C:/Espressif/ESP8266_SDK\lib\libnet80211.a(ieee80211_input.o)
 .data          0x00000000        0x0 C:/Espressif/ESP8266_SDK\lib\libnet80211.a(ieee80211_input.o)
 .bss           0x00000000        0x0 C:/Espressif/ESP8266_SDK\lib\libnet80211.a(ieee80211_input.o)
 .xt.lit        0x00000000       0x58 C:/Espressif/ESP8266_SDK\lib\libnet80211.a(ieee80211_input.o)
 .xt.prop       0x00000000      0x774 C:/Espressif/ESP8266_SDK\lib\libnet80211.a(ieee80211_input.o)
 .irom0.literal
                0x00000000        0x0 C:/Espressif/ESP8266_SDK\lib\libnet80211.a(ieee80211_output.o)
 .text          0x00000000        0x0 C:/Espressif/ESP8266_SDK\lib\libnet80211.a(ieee80211_output.o)
 .data          0x00000000        0x0 C:/Espressif/ESP8266_SDK\lib\libnet80211.a(ieee80211_output.o)
 .bss           0x00000000        0x0 C:/Espressif/ESP8266_SDK\lib\libnet80211.a(ieee80211_output.o)
 .xt.lit        0x00000000       0x80 C:/Espressif/ESP8266_SDK\lib\libnet80211.a(ieee80211_output.o)
 .xt.prop       0x00000000      0xa80 C:/Espressif/ESP8266_SDK\lib\libnet80211.a(ieee80211_output.o)
 .irom0.literal
                0x00000000        0x0 C:/Espressif/ESP8266_SDK\lib\libnet80211.a(ieee80211_phy.o)
 .text          0x00000000        0x0 C:/Espressif/ESP8266_SDK\lib\libnet80211.a(ieee80211_phy.o)
 .bss           0x00000000        0x0 C:/Espressif/ESP8266_SDK\lib\libnet80211.a(ieee80211_phy.o)
 .xt.lit        0x00000000       0x38 C:/Espressif/ESP8266_SDK\lib\libnet80211.a(ieee80211_phy.o)
 .xt.prop       0x00000000      0x24c C:/Espressif/ESP8266_SDK\lib\libnet80211.a(ieee80211_phy.o)
 .irom0.literal
                0x00000000        0x0 C:/Espressif/ESP8266_SDK\lib\libnet80211.a(ieee80211_power.o)
 .text          0x00000000        0x0 C:/Espressif/ESP8266_SDK\lib\libnet80211.a(ieee80211_power.o)
 .data          0x00000000        0x0 C:/Espressif/ESP8266_SDK\lib\libnet80211.a(ieee80211_power.o)
 .bss           0x00000000        0x0 C:/Espressif/ESP8266_SDK\lib\libnet80211.a(ieee80211_power.o)
 .xt.lit        0x00000000       0x20 C:/Espressif/ESP8266_SDK\lib\libnet80211.a(ieee80211_power.o)
 .xt.prop       0x00000000      0x15c C:/Espressif/ESP8266_SDK\lib\libnet80211.a(ieee80211_power.o)
 .irom0.literal
                0x00000000        0x0 C:/Espressif/ESP8266_SDK\lib\libnet80211.a(ieee80211_proto.o)
 .text          0x00000000        0x0 C:/Espressif/ESP8266_SDK\lib\libnet80211.a(ieee80211_proto.o)
 .bss           0x00000000        0x0 C:/Espressif/ESP8266_SDK\lib\libnet80211.a(ieee80211_proto.o)
 .xt.lit        0x00000000       0x20 C:/Espressif/ESP8266_SDK\lib\libnet80211.a(ieee80211_proto.o)
 .xt.prop       0x00000000      0x204 C:/Espressif/ESP8266_SDK\lib\libnet80211.a(ieee80211_proto.o)
 .irom0.literal
                0x00000000        0x0 C:/Espressif/ESP8266_SDK\lib\libnet80211.a(ieee80211_scan.o)
 .literal       0x00000000        0x0 C:/Espressif/ESP8266_SDK\lib\libnet80211.a(ieee80211_scan.o)
 .text          0x00000000       0x39 C:/Espressif/ESP8266_SDK\lib\libnet80211.a(ieee80211_scan.o)
 .data          0x00000000        0x0 C:/Espressif/ESP8266_SDK\lib\libnet80211.a(ieee80211_scan.o)
 .xt.lit        0x00000000       0xd8 C:/Espressif/ESP8266_SDK\lib\libnet80211.a(ieee80211_scan.o)
 .xt.prop       0x00000000      0xa14 C:/Espressif/ESP8266_SDK\lib\libnet80211.a(ieee80211_scan.o)
 .irom0.literal
                0x00000000        0x0 C:/Espressif/ESP8266_SDK\lib\libnet80211.a(ieee80211_sta.o)
 .literal       0x00000000        0x0 C:/Espressif/ESP8266_SDK\lib\libnet80211.a(ieee80211_sta.o)
 .data          0x00000000        0x0 C:/Espressif/ESP8266_SDK\lib\libnet80211.a(ieee80211_sta.o)
 .bss           0x00000000        0x0 C:/Espressif/ESP8266_SDK\lib\libnet80211.a(ieee80211_sta.o)
 .xt.lit        0x00000000       0x50 C:/Espressif/ESP8266_SDK\lib\libnet80211.a(ieee80211_sta.o)
 .xt.prop       0x00000000      0x828 C:/Espressif/ESP8266_SDK\lib\libnet80211.a(ieee80211_sta.o)
 .irom0.literal
                0x00000000        0x0 C:/Espressif/ESP8266_SDK\lib\libnet80211.a(wl_chm.o)
 .literal       0x00000000        0x0 C:/Espressif/ESP8266_SDK\lib\libnet80211.a(wl_chm.o)
 .data          0x00000000        0x0 C:/Espressif/ESP8266_SDK\lib\libnet80211.a(wl_chm.o)
 .xt.lit        0x00000000       0x60 C:/Espressif/ESP8266_SDK\lib\libnet80211.a(wl_chm.o)
 .xt.prop       0x00000000      0x2ac C:/Espressif/ESP8266_SDK\lib\libnet80211.a(wl_chm.o)
 .irom0.literal
                0x00000000        0x0 C:/Espressif/ESP8266_SDK\lib\libnet80211.a(wl_cnx.o)
 .text          0x00000000        0x0 C:/Espressif/ESP8266_SDK\lib\libnet80211.a(wl_cnx.o)
 .data          0x00000000        0x0 C:/Espressif/ESP8266_SDK\lib\libnet80211.a(wl_cnx.o)
 .xt.lit        0x00000000       0xf0 C:/Espressif/ESP8266_SDK\lib\libnet80211.a(wl_cnx.o)
 .xt.prop       0x00000000      0xbf4 C:/Espressif/ESP8266_SDK\lib\libnet80211.a(wl_cnx.o)
 .irom0.literal
                0x00000000        0x0 C:/Espressif/ESP8266_SDK\lib\libnet80211.a(ieee80211_action.o)
 .text          0x00000000        0x0 C:/Espressif/ESP8266_SDK\lib\libnet80211.a(ieee80211_action.o)
 .bss           0x00000000        0x0 C:/Espressif/ESP8266_SDK\lib\libnet80211.a(ieee80211_action.o)
 .xt.lit        0x00000000       0x30 C:/Espressif/ESP8266_SDK\lib\libnet80211.a(ieee80211_action.o)
 .xt.prop       0x00000000      0x2f4 C:/Espressif/ESP8266_SDK\lib\libnet80211.a(ieee80211_action.o)
 .irom0.literal
                0x00000000        0x0 C:/Espressif/ESP8266_SDK\lib\liblwip.a(dhcp.o)
 .text          0x00000000        0x0 C:/Espressif/ESP8266_SDK\lib\liblwip.a(dhcp.o)
 .xt.lit        0x00000000       0xc0 C:/Espressif/ESP8266_SDK\lib\liblwip.a(dhcp.o)
 .xt.prop       0x00000000      0xc9c C:/Espressif/ESP8266_SDK\lib\liblwip.a(dhcp.o)
 .irom0.literal
                0x00000000        0x0 C:/Espressif/ESP8266_SDK\lib\liblwip.a(dhcpserver.o)
 .text          0x00000000        0x0 C:/Espressif/ESP8266_SDK\lib\liblwip.a(dhcpserver.o)
 .xt.lit        0x00000000       0x68 C:/Espressif/ESP8266_SDK\lib\liblwip.a(dhcpserver.o)
 .xt.prop       0x00000000      0x648 C:/Espressif/ESP8266_SDK\lib\liblwip.a(dhcpserver.o)
 .irom0.literal
                0x00000000        0x0 C:/Espressif/ESP8266_SDK\lib\liblwip.a(dns.o)
 .literal       0x00000000        0x0 C:/Espressif/ESP8266_SDK\lib\liblwip.a(dns.o)
 .data          0x00000000        0x0 C:/Espressif/ESP8266_SDK\lib\liblwip.a(dns.o)
 .xt.lit        0x00000000       0x48 C:/Espressif/ESP8266_SDK\lib\liblwip.a(dns.o)
 .xt.prop       0x00000000      0x444 C:/Espressif/ESP8266_SDK\lib\liblwip.a(dns.o)
 .literal       0x00000000        0x0 C:/Espressif/ESP8266_SDK\lib\liblwip.a(etharp.o)
 .irom0.literal
                0x00000000        0x0 C:/Espressif/ESP8266_SDK\lib\liblwip.a(etharp.o)
 .data          0x00000000        0x0 C:/Espressif/ESP8266_SDK\lib\liblwip.a(etharp.o)
 .xt.lit        0x00000000       0x70 C:/Espressif/ESP8266_SDK\lib\liblwip.a(etharp.o)
 .xt.prop       0x00000000      0x618 C:/Espressif/ESP8266_SDK\lib\liblwip.a(etharp.o)
 .irom0.literal
                0x00000000        0x0 C:/Espressif/ESP8266_SDK\lib\liblwip.a(init.o)
 .text          0x00000000        0x0 C:/Espressif/ESP8266_SDK\lib\liblwip.a(init.o)
 .data          0x00000000        0x0 C:/Espressif/ESP8266_SDK\lib\liblwip.a(init.o)
 .bss           0x00000000        0x0 C:/Espressif/ESP8266_SDK\lib\liblwip.a(init.o)
 .xt.lit        0x00000000        0x8 C:/Espressif/ESP8266_SDK\lib\liblwip.a(init.o)
 .xt.prop       0x00000000       0x24 C:/Espressif/ESP8266_SDK\lib\liblwip.a(init.o)
 .irom0.literal
                0x00000000        0x0 C:/Espressif/ESP8266_SDK\lib\liblwip.a(ip_addr.o)
 .text          0x00000000        0x0 C:/Espressif/ESP8266_SDK\lib\liblwip.a(ip_addr.o)
 .data          0x00000000        0x0 C:/Espressif/ESP8266_SDK\lib\liblwip.a(ip_addr.o)
 .xt.lit        0x00000000       0x20 C:/Espressif/ESP8266_SDK\lib\liblwip.a(ip_addr.o)
 .xt.prop       0x00000000      0x2c4 C:/Espressif/ESP8266_SDK\lib\liblwip.a(ip_addr.o)
 .irom0.literal
                0x00000000        0x0 C:/Espressif/ESP8266_SDK\lib\liblwip.a(ip.o)
 .text          0x00000000        0x0 C:/Espressif/ESP8266_SDK\lib\liblwip.a(ip.o)
 .data          0x00000000        0x0 C:/Espressif/ESP8266_SDK\lib\liblwip.a(ip.o)
 .xt.lit        0x00000000       0x20 C:/Espressif/ESP8266_SDK\lib\liblwip.a(ip.o)
 .xt.prop       0x00000000      0x420 C:/Espressif/ESP8266_SDK\lib\liblwip.a(ip.o)
 .text          0x00000000        0x0 C:/Espressif/ESP8266_SDK\lib\liblwip.a(memp.o)
 .data          0x00000000        0x2 C:/Espressif/ESP8266_SDK\lib\liblwip.a(memp.o)
 .bss           0x00000000        0x0 C:/Espressif/ESP8266_SDK\lib\liblwip.a(memp.o)
 .xt.prop       0x00000000       0x18 C:/Espressif/ESP8266_SDK\lib\liblwip.a(memp.o)
 .irom0.literal
                0x00000000        0x0 C:/Espressif/ESP8266_SDK\lib\liblwip.a(netif.o)
 .text          0x00000000        0x0 C:/Espressif/ESP8266_SDK\lib\liblwip.a(netif.o)
 .data          0x00000000        0x0 C:/Espressif/ESP8266_SDK\lib\liblwip.a(netif.o)
 .xt.lit        0x00000000       0x40 C:/Espressif/ESP8266_SDK\lib\liblwip.a(netif.o)
 .xt.prop       0x00000000      0x354 C:/Espressif/ESP8266_SDK\lib\liblwip.a(netif.o)
 .irom0.literal
                0x00000000        0x0 C:/Espressif/ESP8266_SDK\lib\liblwip.a(pbuf.o)
 .text          0x00000000        0x0 C:/Espressif/ESP8266_SDK\lib\liblwip.a(pbuf.o)
 .data          0x00000000        0x0 C:/Espressif/ESP8266_SDK\lib\liblwip.a(pbuf.o)
 .bss           0x00000000        0x0 C:/Espressif/ESP8266_SDK\lib\liblwip.a(pbuf.o)
 .xt.lit        0x00000000       0x40 C:/Espressif/ESP8266_SDK\lib\liblwip.a(pbuf.o)
 .xt.prop       0x00000000      0x690 C:/Espressif/ESP8266_SDK\lib\liblwip.a(pbuf.o)
 .irom0.literal
                0x00000000        0x0 C:/Espressif/ESP8266_SDK\lib\liblwip.a(raw.o)
 .text          0x00000000        0x0 C:/Espressif/ESP8266_SDK\lib\liblwip.a(raw.o)
 .data          0x00000000        0x0 C:/Espressif/ESP8266_SDK\lib\liblwip.a(raw.o)
 .xt.lit        0x00000000       0x20 C:/Espressif/ESP8266_SDK\lib\liblwip.a(raw.o)
 .xt.prop       0x00000000      0x27c C:/Espressif/ESP8266_SDK\lib\liblwip.a(raw.o)
 .irom0.literal
                0x00000000        0x0 C:/Espressif/ESP8266_SDK\lib\liblwip.a(tcp_in.o)
 .text          0x00000000        0x0 C:/Espressif/ESP8266_SDK\lib\liblwip.a(tcp_in.o)
 .data          0x00000000        0x0 C:/Espressif/ESP8266_SDK\lib\liblwip.a(tcp_in.o)
 .xt.lit        0x00000000       0x30 C:/Espressif/ESP8266_SDK\lib\liblwip.a(tcp_in.o)
 .xt.prop       0x00000000      0xa20 C:/Espressif/ESP8266_SDK\lib\liblwip.a(tcp_in.o)
 .irom0.literal
                0x00000000        0x0 C:/Espressif/ESP8266_SDK\lib\liblwip.a(tcp.o)
 .literal       0x00000000        0x0 C:/Espressif/ESP8266_SDK\lib\liblwip.a(tcp.o)
 .xt.lit        0x00000000       0xb8 C:/Espressif/ESP8266_SDK\lib\liblwip.a(tcp.o)
 .xt.prop       0x00000000      0xcb4 C:/Espressif/ESP8266_SDK\lib\liblwip.a(tcp.o)
 .irom0.literal
                0x00000000        0x0 C:/Espressif/ESP8266_SDK\lib\liblwip.a(tcp_out.o)
 .literal       0x00000000        0x0 C:/Espressif/ESP8266_SDK\lib\liblwip.a(tcp_out.o)
 .data          0x00000000        0x0 C:/Espressif/ESP8266_SDK\lib\liblwip.a(tcp_out.o)
 .bss           0x00000000        0x0 C:/Espressif/ESP8266_SDK\lib\liblwip.a(tcp_out.o)
 .xt.lit        0x00000000       0x70 C:/Espressif/ESP8266_SDK\lib\liblwip.a(tcp_out.o)
 .xt.prop       0x00000000      0x7a4 C:/Espressif/ESP8266_SDK\lib\liblwip.a(tcp_out.o)
 .irom0.literal
                0x00000000        0x0 C:/Espressif/ESP8266_SDK\lib\liblwip.a(timers.o)
 .literal       0x00000000        0x0 C:/Espressif/ESP8266_SDK\lib\liblwip.a(timers.o)
 .data          0x00000000        0x0 C:/Espressif/ESP8266_SDK\lib\liblwip.a(timers.o)
 .xt.lit        0x00000000       0x68 C:/Espressif/ESP8266_SDK\lib\liblwip.a(timers.o)
 .xt.prop       0x00000000      0x354 C:/Espressif/ESP8266_SDK\lib\liblwip.a(timers.o)
 .irom0.literal
                0x00000000        0x0 C:/Espressif/ESP8266_SDK\lib\liblwip.a(udp.o)
 .text          0x00000000        0x0 C:/Espressif/ESP8266_SDK\lib\liblwip.a(udp.o)
 .data          0x00000000        0x0 C:/Espressif/ESP8266_SDK\lib\liblwip.a(udp.o)
 .xt.lit        0x00000000       0x38 C:/Espressif/ESP8266_SDK\lib\liblwip.a(udp.o)
 .xt.prop       0x00000000      0x4f8 C:/Espressif/ESP8266_SDK\lib\liblwip.a(udp.o)
 .irom0.literal
                0x00000000        0x0 C:/Espressif/ESP8266_SDK\lib\liblwip.a(icmp.o)
 .text          0x00000000        0x0 C:/Espressif/ESP8266_SDK\lib\liblwip.a(icmp.o)
 .data          0x00000000        0x0 C:/Espressif/ESP8266_SDK\lib\liblwip.a(icmp.o)
 .bss           0x00000000        0x0 C:/Espressif/ESP8266_SDK\lib\liblwip.a(icmp.o)
 .xt.lit        0x00000000       0x10 C:/Espressif/ESP8266_SDK\lib\liblwip.a(icmp.o)
 .xt.prop       0x00000000      0x108 C:/Espressif/ESP8266_SDK\lib\liblwip.a(icmp.o)
 .irom0.literal
                0x00000000        0x0 C:/Espressif/ESP8266_SDK\lib\liblwip.a(igmp.o)
 .text          0x00000000        0x0 C:/Espressif/ESP8266_SDK\lib\liblwip.a(igmp.o)
 .data          0x00000000        0x0 C:/Espressif/ESP8266_SDK\lib\liblwip.a(igmp.o)
 .xt.lit        0x00000000       0x70 C:/Espressif/ESP8266_SDK\lib\liblwip.a(igmp.o)
 .xt.prop       0x00000000      0x5b8 C:/Espressif/ESP8266_SDK\lib\liblwip.a(igmp.o)
 .irom0.literal
                0x00000000        0x0 C:/Espressif/ESP8266_SDK\lib\liblwip.a(inet_chksum.o)
 .text          0x00000000        0x0 C:/Espressif/ESP8266_SDK\lib\liblwip.a(inet_chksum.o)
 .data          0x00000000        0x0 C:/Espressif/ESP8266_SDK\lib\liblwip.a(inet_chksum.o)
 .bss           0x00000000        0x0 C:/Espressif/ESP8266_SDK\lib\liblwip.a(inet_chksum.o)
 .xt.prop       0x00000000      0x174 C:/Espressif/ESP8266_SDK\lib\liblwip.a(inet_chksum.o)
 .irom0.literal
                0x00000000        0x0 C:/Espressif/ESP8266_SDK\lib\libwpa.a(ap_config.o)
 .text          0x00000000        0x0 C:/Espressif/ESP8266_SDK\lib\libwpa.a(ap_config.o)
 .data          0x00000000        0x0 C:/Espressif/ESP8266_SDK\lib\libwpa.a(ap_config.o)
 .bss           0x00000000        0x0 C:/Espressif/ESP8266_SDK\lib\libwpa.a(ap_config.o)
 .xt.lit        0x00000000       0x40 C:/Espressif/ESP8266_SDK\lib\libwpa.a(ap_config.o)
 .xt.prop       0x00000000      0x2ac C:/Espressif/ESP8266_SDK\lib\libwpa.a(ap_config.o)
 .irom0.literal
                0x00000000        0x0 C:/Espressif/ESP8266_SDK\lib\libwpa.a(common.o)
 .text          0x00000000        0x0 C:/Espressif/ESP8266_SDK\lib\libwpa.a(common.o)
 .data          0x00000000        0x0 C:/Espressif/ESP8266_SDK\lib\libwpa.a(common.o)
 .bss           0x00000000        0x0 C:/Espressif/ESP8266_SDK\lib\libwpa.a(common.o)
 .xt.lit        0x00000000       0x10 C:/Espressif/ESP8266_SDK\lib\libwpa.a(common.o)
 .xt.prop       0x00000000      0x1d4 C:/Espressif/ESP8266_SDK\lib\libwpa.a(common.o)
 .irom0.literal
                0x00000000        0x0 C:/Espressif/ESP8266_SDK\lib\libwpa.a(os_xtensa.o)
 .text          0x00000000        0x0 C:/Espressif/ESP8266_SDK\lib\libwpa.a(os_xtensa.o)
 .data          0x00000000        0x0 C:/Espressif/ESP8266_SDK\lib\libwpa.a(os_xtensa.o)
 .bss           0x00000000        0x0 C:/Espressif/ESP8266_SDK\lib\libwpa.a(os_xtensa.o)
 .xt.lit        0x00000000       0x18 C:/Espressif/ESP8266_SDK\lib\libwpa.a(os_xtensa.o)
 .xt.prop       0x00000000      0x138 C:/Espressif/ESP8266_SDK\lib\libwpa.a(os_xtensa.o)
 .literal       0x00000000        0x0 C:/Espressif/ESP8266_SDK\lib\libwpa.a(wpa_auth.o)
 .irom0.literal
                0x00000000        0x0 C:/Espressif/ESP8266_SDK\lib\libwpa.a(wpa_auth.o)
 .data          0x00000000        0x0 C:/Espressif/ESP8266_SDK\lib\libwpa.a(wpa_auth.o)
 .bss           0x00000000        0x0 C:/Espressif/ESP8266_SDK\lib\libwpa.a(wpa_auth.o)
 .rodata        0x00000000       0x14 C:/Espressif/ESP8266_SDK\lib\libwpa.a(wpa_auth.o)
 .xt.lit        0x00000000      0x100 C:/Espressif/ESP8266_SDK\lib\libwpa.a(wpa_auth.o)
 .xt.prop       0x00000000     0x1578 C:/Espressif/ESP8266_SDK\lib\libwpa.a(wpa_auth.o)
 .irom0.literal
                0x00000000        0x0 C:/Espressif/ESP8266_SDK\lib\libwpa.a(wpa_auth_ie.o)
 .text          0x00000000        0x0 C:/Espressif/ESP8266_SDK\lib\libwpa.a(wpa_auth_ie.o)
 .data          0x00000000        0x0 C:/Espressif/ESP8266_SDK\lib\libwpa.a(wpa_auth_ie.o)
 .bss           0x00000000        0x0 C:/Espressif/ESP8266_SDK\lib\libwpa.a(wpa_auth_ie.o)
 .xt.lit        0x00000000       0x38 C:/Espressif/ESP8266_SDK\lib\libwpa.a(wpa_auth_ie.o)
 .xt.prop       0x00000000      0x414 C:/Espressif/ESP8266_SDK\lib\libwpa.a(wpa_auth_ie.o)
 .irom0.literal
                0x00000000        0x0 C:/Espressif/ESP8266_SDK\lib\libwpa.a(wpa.o)
 .literal       0x00000000        0x0 C:/Espressif/ESP8266_SDK\lib\libwpa.a(wpa.o)
 .data          0x00000000        0x0 C:/Espressif/ESP8266_SDK\lib\libwpa.a(wpa.o)
 .xt.lit        0x00000000      0x118 C:/Espressif/ESP8266_SDK\lib\libwpa.a(wpa.o)
 .xt.prop       0x00000000      0xc48 C:/Espressif/ESP8266_SDK\lib\libwpa.a(wpa.o)
 .irom0.literal
                0x00000000        0x0 C:/Espressif/ESP8266_SDK\lib\libwpa.a(wpa_common.o)
 .text          0x00000000        0x0 C:/Espressif/ESP8266_SDK\lib\libwpa.a(wpa_common.o)
 .data          0x00000000        0x0 C:/Espressif/ESP8266_SDK\lib\libwpa.a(wpa_common.o)
 .bss           0x00000000        0x0 C:/Espressif/ESP8266_SDK\lib\libwpa.a(wpa_common.o)
 .xt.lit        0x00000000       0x60 C:/Espressif/ESP8266_SDK\lib\libwpa.a(wpa_common.o)
 .xt.prop       0x00000000      0x7c8 C:/Espressif/ESP8266_SDK\lib\libwpa.a(wpa_common.o)
 .irom0.literal
                0x00000000        0x0 C:/Espressif/ESP8266_SDK\lib\libwpa.a(wpa_debug.o)
 .text          0x00000000        0x0 C:/Espressif/ESP8266_SDK\lib\libwpa.a(wpa_debug.o)
 .data          0x00000000        0x0 C:/Espressif/ESP8266_SDK\lib\libwpa.a(wpa_debug.o)
 .bss           0x00000000        0x0 C:/Espressif/ESP8266_SDK\lib\libwpa.a(wpa_debug.o)
 .xt.prop       0x00000000       0x3c C:/Espressif/ESP8266_SDK\lib\libwpa.a(wpa_debug.o)
 .irom0.literal
                0x00000000        0x0 C:/Espressif/ESP8266_SDK\lib\libwpa.a(wpa_ie.o)
 .text          0x00000000        0x0 C:/Espressif/ESP8266_SDK\lib\libwpa.a(wpa_ie.o)
 .data          0x00000000        0x0 C:/Espressif/ESP8266_SDK\lib\libwpa.a(wpa_ie.o)
 .bss           0x00000000        0x0 C:/Espressif/ESP8266_SDK\lib\libwpa.a(wpa_ie.o)
 .xt.lit        0x00000000       0x18 C:/Espressif/ESP8266_SDK\lib\libwpa.a(wpa_ie.o)
 .xt.prop       0x00000000      0x348 C:/Espressif/ESP8266_SDK\lib\libwpa.a(wpa_ie.o)
 .irom0.literal
                0x00000000        0x0 C:/Espressif/ESP8266_SDK\lib\libwpa.a(wpa_main.o)
 .literal       0x00000000        0x0 C:/Espressif/ESP8266_SDK\lib\libwpa.a(wpa_main.o)
 .data          0x00000000        0x0 C:/Espressif/ESP8266_SDK\lib\libwpa.a(wpa_main.o)
 .bss           0x00000000        0x0 C:/Espressif/ESP8266_SDK\lib\libwpa.a(wpa_main.o)
 .xt.lit        0x00000000       0x48 C:/Espressif/ESP8266_SDK\lib\libwpa.a(wpa_main.o)
 .xt.prop       0x00000000      0x21c C:/Espressif/ESP8266_SDK\lib\libwpa.a(wpa_main.o)
 .irom0.literal
                0x00000000        0x0 C:/Espressif/ESP8266_SDK\lib\libwpa.a(wpas_glue.o)
 .text          0x00000000        0x0 C:/Espressif/ESP8266_SDK\lib\libwpa.a(wpas_glue.o)
 .data          0x00000000        0x0 C:/Espressif/ESP8266_SDK\lib\libwpa.a(wpas_glue.o)
 .bss           0x00000000        0x0 C:/Espressif/ESP8266_SDK\lib\libwpa.a(wpas_glue.o)
 .xt.lit        0x00000000       0x10 C:/Espressif/ESP8266_SDK\lib\libwpa.a(wpas_glue.o)
 .xt.prop       0x00000000      0x108 C:/Espressif/ESP8266_SDK\lib\libwpa.a(wpas_glue.o)
 .irom0.literal
                0x00000000        0x0 C:/Espressif/ESP8266_SDK\lib\libwpa.a(aes-wrap.o)
 .text          0x00000000        0x0 C:/Espressif/ESP8266_SDK\lib\libwpa.a(aes-wrap.o)
 .data          0x00000000        0x0 C:/Espressif/ESP8266_SDK\lib\libwpa.a(aes-wrap.o)
 .bss           0x00000000        0x0 C:/Espressif/ESP8266_SDK\lib\libwpa.a(aes-wrap.o)
 .xt.lit        0x00000000        0x8 C:/Espressif/ESP8266_SDK\lib\libwpa.a(aes-wrap.o)
 .xt.prop       0x00000000       0x60 C:/Espressif/ESP8266_SDK\lib\libwpa.a(aes-wrap.o)
 .irom0.literal
                0x00000000        0x0 C:/Espressif/ESP8266_SDK\lib\libwpa.a(aes-internal-enc.o)
 .text          0x00000000        0x0 C:/Espressif/ESP8266_SDK\lib\libwpa.a(aes-internal-enc.o)
 .data          0x00000000        0x0 C:/Espressif/ESP8266_SDK\lib\libwpa.a(aes-internal-enc.o)
 .bss           0x00000000        0x0 C:/Espressif/ESP8266_SDK\lib\libwpa.a(aes-internal-enc.o)
 .xt.lit        0x00000000       0x18 C:/Espressif/ESP8266_SDK\lib\libwpa.a(aes-internal-enc.o)
 .xt.prop       0x00000000       0xcc C:/Espressif/ESP8266_SDK\lib\libwpa.a(aes-internal-enc.o)
 .data          0x00000000        0x0 c:/espressif/xtensa-lx106-elf/bin/../lib/gcc/xtensa-lx106-elf/4.8.2/../../../../xtensa-lx106-elf/lib\libc.a(memset.o)
 .bss           0x00000000        0x0 c:/espressif/xtensa-lx106-elf/bin/../lib/gcc/xtensa-lx106-elf/4.8.2/../../../../xtensa-lx106-elf/lib\libc.a(memset.o)
 .xt.prop       0x00000000       0xe4 c:/espressif/xtensa-lx106-elf/bin/../lib/gcc/xtensa-lx106-elf/4.8.2/../../../../xtensa-lx106-elf/lib\libc.a(memset.o)
 .data          0x00000000        0x0 c:/espressif/xtensa-lx106-elf/bin/../lib/gcc/xtensa-lx106-elf/4.8.2/../../../../xtensa-lx106-elf/lib\libc.a(rand.o)
 .bss           0x00000000        0x0 c:/espressif/xtensa-lx106-elf/bin/../lib/gcc/xtensa-lx106-elf/4.8.2/../../../../xtensa-lx106-elf/lib\libc.a(rand.o)
 .xt.lit        0x00000000        0x8 c:/espressif/xtensa-lx106-elf/bin/../lib/gcc/xtensa-lx106-elf/4.8.2/../../../../xtensa-lx106-elf/lib\libc.a(rand.o)
 .xt.prop       0x00000000       0x54 c:/espressif/xtensa-lx106-elf/bin/../lib/gcc/xtensa-lx106-elf/4.8.2/../../../../xtensa-lx106-elf/lib\libc.a(rand.o)
 .data          0x00000000        0x0 c:/espressif/xtensa-lx106-elf/bin/../lib/gcc/xtensa-lx106-elf/4.8.2/../../../../xtensa-lx106-elf/lib\libc.a(strlen.o)
 .bss           0x00000000        0x0 c:/espressif/xtensa-lx106-elf/bin/../lib/gcc/xtensa-lx106-elf/4.8.2/../../../../xtensa-lx106-elf/lib\libc.a(strlen.o)
 .xt.lit        0x00000000        0x8 c:/espressif/xtensa-lx106-elf/bin/../lib/gcc/xtensa-lx106-elf/4.8.2/../../../../xtensa-lx106-elf/lib\libc.a(strlen.o)
 .xt.prop       0x00000000       0xb4 c:/espressif/xtensa-lx106-elf/bin/../lib/gcc/xtensa-lx106-elf/4.8.2/../../../../xtensa-lx106-elf/lib\libc.a(strlen.o)
 .text          0x00000000        0x0 c:/espressif/xtensa-lx106-elf/bin/../lib/gcc/xtensa-lx106-elf/4.8.2/../../../../xtensa-lx106-elf/lib\libc.a(impure.o)
 .bss           0x00000000        0x0 c:/espressif/xtensa-lx106-elf/bin/../lib/gcc/xtensa-lx106-elf/4.8.2/../../../../xtensa-lx106-elf/lib\libc.a(impure.o)
 .rodata        0x00000000        0x4 c:/espressif/xtensa-lx106-elf/bin/../lib/gcc/xtensa-lx106-elf/4.8.2/../../../../xtensa-lx106-elf/lib\libc.a(impure.o)
 .xt.prop       0x00000000       0x24 c:/espressif/xtensa-lx106-elf/bin/../lib/gcc/xtensa-lx106-elf/4.8.2/../../../../xtensa-lx106-elf/lib\libc.a(impure.o)
 .data          0x00000000        0x0 c:/espressif/xtensa-lx106-elf/bin/../lib/gcc/xtensa-lx106-elf/4.8.2\libgcc.a(_divsi3.o)
 .bss           0x00000000        0x0 c:/espressif/xtensa-lx106-elf/bin/../lib/gcc/xtensa-lx106-elf/4.8.2\libgcc.a(_divsi3.o)
 .xt.prop       0x00000000       0x9c c:/espressif/xtensa-lx106-elf/bin/../lib/gcc/xtensa-lx106-elf/4.8.2\libgcc.a(_divsi3.o)
 .data          0x00000000        0x0 c:/espressif/xtensa-lx106-elf/bin/../lib/gcc/xtensa-lx106-elf/4.8.2\libgcc.a(_modsi3.o)
 .bss           0x00000000        0x0 c:/espressif/xtensa-lx106-elf/bin/../lib/gcc/xtensa-lx106-elf/4.8.2\libgcc.a(_modsi3.o)
 .xt.prop       0x00000000       0x84 c:/espressif/xtensa-lx106-elf/bin/../lib/gcc/xtensa-lx106-elf/4.8.2\libgcc.a(_modsi3.o)
 .data          0x00000000        0x0 c:/espressif/xtensa-lx106-elf/bin/../lib/gcc/xtensa-lx106-elf/4.8.2\libgcc.a(_ashrdi3.o)
 .bss           0x00000000        0x0 c:/espressif/xtensa-lx106-elf/bin/../lib/gcc/xtensa-lx106-elf/4.8.2\libgcc.a(_ashrdi3.o)
 .xt.prop       0x00000000       0x3c c:/espressif/xtensa-lx106-elf/bin/../lib/gcc/xtensa-lx106-elf/4.8.2\libgcc.a(_ashrdi3.o)
 .data          0x00000000        0x0 c:/espressif/xtensa-lx106-elf/bin/../lib/gcc/xtensa-lx106-elf/4.8.2\libgcc.a(_addsubsf3.o)
 .bss           0x00000000        0x0 c:/espressif/xtensa-lx106-elf/bin/../lib/gcc/xtensa-lx106-elf/4.8.2\libgcc.a(_addsubsf3.o)
 .xt.lit        0x00000000        0x8 c:/espressif/xtensa-lx106-elf/bin/../lib/gcc/xtensa-lx106-elf/4.8.2\libgcc.a(_addsubsf3.o)
 .xt.prop       0x00000000      0x2e8 c:/espressif/xtensa-lx106-elf/bin/../lib/gcc/xtensa-lx106-elf/4.8.2\libgcc.a(_addsubsf3.o)
 .data          0x00000000        0x0 c:/espressif/xtensa-lx106-elf/bin/../lib/gcc/xtensa-lx106-elf/4.8.2\libgcc.a(_mulsf3.o)
 .bss           0x00000000        0x0 c:/espressif/xtensa-lx106-elf/bin/../lib/gcc/xtensa-lx106-elf/4.8.2\libgcc.a(_mulsf3.o)
 .xt.lit        0x00000000        0x8 c:/espressif/xtensa-lx106-elf/bin/../lib/gcc/xtensa-lx106-elf/4.8.2\libgcc.a(_mulsf3.o)
 .xt.prop       0x00000000      0x168 c:/espressif/xtensa-lx106-elf/bin/../lib/gcc/xtensa-lx106-elf/4.8.2\libgcc.a(_mulsf3.o)
 .data          0x00000000        0x0 c:/espressif/xtensa-lx106-elf/bin/../lib/gcc/xtensa-lx106-elf/4.8.2\libgcc.a(_divsf3.o)
 .bss           0x00000000        0x0 c:/espressif/xtensa-lx106-elf/bin/../lib/gcc/xtensa-lx106-elf/4.8.2\libgcc.a(_divsf3.o)
 .xt.lit        0x00000000        0x8 c:/espressif/xtensa-lx106-elf/bin/../lib/gcc/xtensa-lx106-elf/4.8.2\libgcc.a(_divsf3.o)
 .xt.prop       0x00000000      0x168 c:/espressif/xtensa-lx106-elf/bin/../lib/gcc/xtensa-lx106-elf/4.8.2\libgcc.a(_divsf3.o)
 .data          0x00000000        0x0 c:/espressif/xtensa-lx106-elf/bin/../lib/gcc/xtensa-lx106-elf/4.8.2\libgcc.a(_fixsfsi.o)
 .bss           0x00000000        0x0 c:/espressif/xtensa-lx106-elf/bin/../lib/gcc/xtensa-lx106-elf/4.8.2\libgcc.a(_fixsfsi.o)
 .xt.lit        0x00000000        0x8 c:/espressif/xtensa-lx106-elf/bin/../lib/gcc/xtensa-lx106-elf/4.8.2\libgcc.a(_fixsfsi.o)
 .xt.prop       0x00000000       0x6c c:/espressif/xtensa-lx106-elf/bin/../lib/gcc/xtensa-lx106-elf/4.8.2\libgcc.a(_fixsfsi.o)
 .data          0x00000000        0x0 c:/espressif/xtensa-lx106-elf/bin/../lib/gcc/xtensa-lx106-elf/4.8.2\libgcc.a(_fixunssfsi.o)
 .bss           0x00000000        0x0 c:/espressif/xtensa-lx106-elf/bin/../lib/gcc/xtensa-lx106-elf/4.8.2\libgcc.a(_fixunssfsi.o)
 .xt.lit        0x00000000        0x8 c:/espressif/xtensa-lx106-elf/bin/../lib/gcc/xtensa-lx106-elf/4.8.2\libgcc.a(_fixunssfsi.o)
 .xt.prop       0x00000000       0xa8 c:/espressif/xtensa-lx106-elf/bin/../lib/gcc/xtensa-lx106-elf/4.8.2\libgcc.a(_fixunssfsi.o)
 .data          0x00000000        0x0 c:/espressif/xtensa-lx106-elf/bin/../lib/gcc/xtensa-lx106-elf/4.8.2\libgcc.a(_floatsisf.o)
 .bss           0x00000000        0x0 c:/espressif/xtensa-lx106-elf/bin/../lib/gcc/xtensa-lx106-elf/4.8.2\libgcc.a(_floatsisf.o)
 .xt.prop       0x00000000       0x60 c:/espressif/xtensa-lx106-elf/bin/../lib/gcc/xtensa-lx106-elf/4.8.2\libgcc.a(_floatsisf.o)
 .data          0x00000000        0x0 c:/espressif/xtensa-lx106-elf/bin/../lib/gcc/xtensa-lx106-elf/4.8.2\libgcc.a(_muldf3.o)
 .bss           0x00000000        0x0 c:/espressif/xtensa-lx106-elf/bin/../lib/gcc/xtensa-lx106-elf/4.8.2\libgcc.a(_muldf3.o)
 .xt.lit        0x00000000        0x8 c:/espressif/xtensa-lx106-elf/bin/../lib/gcc/xtensa-lx106-elf/4.8.2\libgcc.a(_muldf3.o)
 .xt.prop       0x00000000      0x294 c:/espressif/xtensa-lx106-elf/bin/../lib/gcc/xtensa-lx106-elf/4.8.2\libgcc.a(_muldf3.o)
 .data          0x00000000        0x0 c:/espressif/xtensa-lx106-elf/bin/../lib/gcc/xtensa-lx106-elf/4.8.2\libgcc.a(_divdf3.o)
 .bss           0x00000000        0x0 c:/espressif/xtensa-lx106-elf/bin/../lib/gcc/xtensa-lx106-elf/4.8.2\libgcc.a(_divdf3.o)
 .xt.lit        0x00000000        0x8 c:/espressif/xtensa-lx106-elf/bin/../lib/gcc/xtensa-lx106-elf/4.8.2\libgcc.a(_divdf3.o)
 .xt.prop       0x00000000      0x264 c:/espressif/xtensa-lx106-elf/bin/../lib/gcc/xtensa-lx106-elf/4.8.2\libgcc.a(_divdf3.o)
 .data          0x00000000        0x0 c:/espressif/xtensa-lx106-elf/bin/../lib/gcc/xtensa-lx106-elf/4.8.2\libgcc.a(_fixdfsi.o)
 .bss           0x00000000        0x0 c:/espressif/xtensa-lx106-elf/bin/../lib/gcc/xtensa-lx106-elf/4.8.2\libgcc.a(_fixdfsi.o)
 .xt.lit        0x00000000        0x8 c:/espressif/xtensa-lx106-elf/bin/../lib/gcc/xtensa-lx106-elf/4.8.2\libgcc.a(_fixdfsi.o)
 .xt.prop       0x00000000       0x6c c:/espressif/xtensa-lx106-elf/bin/../lib/gcc/xtensa-lx106-elf/4.8.2\libgcc.a(_fixdfsi.o)
 .data          0x00000000        0x0 c:/espressif/xtensa-lx106-elf/bin/../lib/gcc/xtensa-lx106-elf/4.8.2\libgcc.a(_floatsidf.o)
 .bss           0x00000000        0x0 c:/espressif/xtensa-lx106-elf/bin/../lib/gcc/xtensa-lx106-elf/4.8.2\libgcc.a(_floatsidf.o)
 .xt.prop       0x00000000       0x54 c:/espressif/xtensa-lx106-elf/bin/../lib/gcc/xtensa-lx106-elf/4.8.2\libgcc.a(_floatsidf.o)
 .data          0x00000000        0x0 c:/espressif/xtensa-lx106-elf/bin/../lib/gcc/xtensa-lx106-elf/4.8.2\libgcc.a(_truncdfsf2.o)
 .bss           0x00000000        0x0 c:/espressif/xtensa-lx106-elf/bin/../lib/gcc/xtensa-lx106-elf/4.8.2\libgcc.a(_truncdfsf2.o)
 .xt.lit        0x00000000        0x8 c:/espressif/xtensa-lx106-elf/bin/../lib/gcc/xtensa-lx106-elf/4.8.2\libgcc.a(_truncdfsf2.o)
 .xt.prop       0x00000000       0xb4 c:/espressif/xtensa-lx106-elf/bin/../lib/gcc/xtensa-lx106-elf/4.8.2\libgcc.a(_truncdfsf2.o)
 .data          0x00000000        0x0 c:/espressif/xtensa-lx106-elf/bin/../lib/gcc/xtensa-lx106-elf/4.8.2\libgcc.a(_popcountsi2.o)
 .bss           0x00000000        0x0 c:/espressif/xtensa-lx106-elf/bin/../lib/gcc/xtensa-lx106-elf/4.8.2\libgcc.a(_popcountsi2.o)
 .xt.lit        0x00000000        0x8 c:/espressif/xtensa-lx106-elf/bin/../lib/gcc/xtensa-lx106-elf/4.8.2\libgcc.a(_popcountsi2.o)
 .xt.prop       0x00000000       0x3c c:/espressif/xtensa-lx106-elf/bin/../lib/gcc/xtensa-lx106-elf/4.8.2\libgcc.a(_popcountsi2.o)
 .data          0x00000000        0x0 c:/espressif/xtensa-lx106-elf/bin/../lib/gcc/xtensa-lx106-elf/4.8.2\libgcc.a(_divdi3.o)
 .bss           0x00000000        0x0 c:/espressif/xtensa-lx106-elf/bin/../lib/gcc/xtensa-lx106-elf/4.8.2\libgcc.a(_divdi3.o)
 .eh_frame      0x00000000       0x30 c:/espressif/xtensa-lx106-elf/bin/../lib/gcc/xtensa-lx106-elf/4.8.2\libgcc.a(_divdi3.o)
 .xt.lit        0x00000000        0x8 c:/espressif/xtensa-lx106-elf/bin/../lib/gcc/xtensa-lx106-elf/4.8.2\libgcc.a(_divdi3.o)
 .xt.prop       0x00000000      0x204 c:/espressif/xtensa-lx106-elf/bin/../lib/gcc/xtensa-lx106-elf/4.8.2\libgcc.a(_divdi3.o)
 .data          0x00000000        0x0 c:/espressif/xtensa-lx106-elf/bin/../lib/gcc/xtensa-lx106-elf/4.8.2\libgcc.a(_umoddi3.o)
 .bss           0x00000000        0x0 c:/espressif/xtensa-lx106-elf/bin/../lib/gcc/xtensa-lx106-elf/4.8.2\libgcc.a(_umoddi3.o)
 .eh_frame      0x00000000       0x30 c:/espressif/xtensa-lx106-elf/bin/../lib/gcc/xtensa-lx106-elf/4.8.2\libgcc.a(_umoddi3.o)
 .xt.lit        0x00000000        0x8 c:/espressif/xtensa-lx106-elf/bin/../lib/gcc/xtensa-lx106-elf/4.8.2\libgcc.a(_umoddi3.o)
 .xt.prop       0x00000000      0x150 c:/espressif/xtensa-lx106-elf/bin/../lib/gcc/xtensa-lx106-elf/4.8.2\libgcc.a(_umoddi3.o)
 .text          0x00000000        0x0 c:/espressif/xtensa-lx106-elf/bin/../lib/gcc/xtensa-lx106-elf/4.8.2\libgcc.a(_popcount_tab.o)
 .data          0x00000000        0x0 c:/espressif/xtensa-lx106-elf/bin/../lib/gcc/xtensa-lx106-elf/4.8.2\libgcc.a(_popcount_tab.o)
 .bss           0x00000000        0x0 c:/espressif/xtensa-lx106-elf/bin/../lib/gcc/xtensa-lx106-elf/4.8.2\libgcc.a(_popcount_tab.o)
 .xt.prop       0x00000000        0xc c:/espressif/xtensa-lx106-elf/bin/../lib/gcc/xtensa-lx106-elf/4.8.2\libgcc.a(_popcount_tab.o)
 .irom0.literal
                0x00000000        0x0 C:/Espressif/ESP8266_SDK\lib\libnet80211.a(ieee80211_crypto_ccmp.o)
 .text          0x00000000        0x0 C:/Espressif/ESP8266_SDK\lib\libnet80211.a(ieee80211_crypto_ccmp.o)
 .bss           0x00000000        0x0 C:/Espressif/ESP8266_SDK\lib\libnet80211.a(ieee80211_crypto_ccmp.o)
 .xt.lit        0x00000000        0x8 C:/Espressif/ESP8266_SDK\lib\libnet80211.a(ieee80211_crypto_ccmp.o)
 .xt.prop       0x00000000       0xc0 C:/Espressif/ESP8266_SDK\lib\libnet80211.a(ieee80211_crypto_ccmp.o)
 .irom0.literal
                0x00000000        0x0 C:/Espressif/ESP8266_SDK\lib\libnet80211.a(ieee80211_crypto_tkip.o)
 .text          0x00000000        0x0 C:/Espressif/ESP8266_SDK\lib\libnet80211.a(ieee80211_crypto_tkip.o)
 .xt.lit        0x00000000       0x10 C:/Espressif/ESP8266_SDK\lib\libnet80211.a(ieee80211_crypto_tkip.o)
 .xt.prop       0x00000000       0xe4 C:/Espressif/ESP8266_SDK\lib\libnet80211.a(ieee80211_crypto_tkip.o)
 .irom0.literal
                0x00000000        0x0 C:/Espressif/ESP8266_SDK\lib\libnet80211.a(ieee80211_crypto_wep.o)
 .text          0x00000000        0x0 C:/Espressif/ESP8266_SDK\lib\libnet80211.a(ieee80211_crypto_wep.o)
 .bss           0x00000000        0x0 C:/Espressif/ESP8266_SDK\lib\libnet80211.a(ieee80211_crypto_wep.o)
 .xt.lit        0x00000000        0x8 C:/Espressif/ESP8266_SDK\lib\libnet80211.a(ieee80211_crypto_wep.o)
 .xt.prop       0x00000000       0x78 C:/Espressif/ESP8266_SDK\lib\libnet80211.a(ieee80211_crypto_wep.o)

Memory Configuration

Name             Origin             Length             Attributes
dport0_0_seg     0x3ff00000         0x00000010
dram0_0_seg      0x3ffe8000         0x00014000
iram1_0_seg      0x40100000         0x00008000
irom0_0_seg      0x40240000         0x00032000
*default*        0x00000000         0xffffffff

Linker script and memory map

LOAD main.o
LOAD bmptk_interface.o
START GROUP
LOAD c:/espressif/xtensa-lx106-elf/bin/../lib/gcc/xtensa-lx106-elf/4.8.2/../../../../xtensa-lx106-elf/lib\libc.a
LOAD c:/espressif/xtensa-lx106-elf/bin/../lib/gcc/xtensa-lx106-elf/4.8.2\libgcc.a
LOAD c:/espressif/xtensa-lx106-elf/bin/../lib/gcc/xtensa-lx106-elf/4.8.2/../../../../xtensa-lx106-elf/lib\libhal.a
LOAD C:/Espressif/ESP8266_SDK\lib\libphy.a
LOAD C:/Espressif/ESP8266_SDK\lib\libpp.a
LOAD C:/Espressif/ESP8266_SDK\lib\libnet80211.a
LOAD C:/Espressif/ESP8266_SDK\lib\liblwip.a
LOAD C:/Espressif/ESP8266_SDK\lib\libwpa.a
LOAD C:/Espressif/ESP8266_SDK\lib\libmain.a
END GROUP
LOAD c:/espressif/xtensa-lx106-elf/bin/../lib/gcc/xtensa-lx106-elf/4.8.2\libgcc.a
                0x40000000                PROVIDE (_memmap_vecbase_reset, 0x40000000)
                0x00000110                _memmap_cacheattr_wb_base = 0x110
                0x00000110                _memmap_cacheattr_wt_base = 0x110
                0x00000220                _memmap_cacheattr_bp_base = 0x220
                0xfffff00f                _memmap_cacheattr_unused_mask = 0xfffff00f
                0x2222211f                _memmap_cacheattr_wb_trapnull = 0x2222211f
                0x2222211f                _memmap_cacheattr_wba_trapnull = 0x2222211f
                0x2222211f                _memmap_cacheattr_wbna_trapnull = 0x2222211f
                0x2222211f                _memmap_cacheattr_wt_trapnull = 0x2222211f
                0x2222222f                _memmap_cacheattr_bp_trapnull = 0x2222222f
                0xfffff11f                _memmap_cacheattr_wb_strict = 0xfffff11f
                0xfffff11f                _memmap_cacheattr_wt_strict = 0xfffff11f
                0xfffff22f                _memmap_cacheattr_bp_strict = 0xfffff22f
                0x22222112                _memmap_cacheattr_wb_allvalid = 0x22222112
                0x22222112                _memmap_cacheattr_wt_allvalid = 0x22222112
                0x22222222                _memmap_cacheattr_bp_allvalid = 0x22222222
                0x2222211f                PROVIDE (_memmap_cacheattr_reset, _memmap_cacheattr_wb_trapnull)

.dport0.rodata  0x3ff00000        0x0
                0x3ff00000                _dport0_rodata_start = ABSOLUTE (.)
 *(.dport0.rodata)
 *(.dport.rodata)
                0x3ff00000                _dport0_rodata_end = ABSOLUTE (.)

.dport0.literal
                0x3ff00000        0x0
                0x3ff00000                _dport0_literal_start = ABSOLUTE (.)
 *(.dport0.literal)
 *(.dport.literal)
                0x3ff00000                _dport0_literal_end = ABSOLUTE (.)

.dport0.data    0x3ff00000        0x0
                0x3ff00000                _dport0_data_start = ABSOLUTE (.)
 *(.dport0.data)
 *(.dport.data)
                0x3ff00000                _dport0_data_end = ABSOLUTE (.)

.data           0x3ffe8000      0xa58
                0x3ffe8000                _data_start = ABSOLUTE (.)
 *(.data)
 .data          0x3ffe8000       0x80 C:/Espressif/ESP8266_SDK\lib\libmain.a(app_main.o)
 .data          0x3ffe8080        0x4 C:/Espressif/ESP8266_SDK\lib\libmain.a(user_interface.o)
                0x3ffe8081                timer2_ms_flag
                0x3ffe8082                dhcps_flag
                0x3ffe8083                dhcpc_flag
 *fill*         0x3ffe8084        0xc 
 .data          0x3ffe8090       0x53 C:/Espressif/ESP8266_SDK\lib\libphy.a(phy_chip_v6.o)
                0x3ffe8092                tx_rf_ana_gain
                0x3ffe80b4                tx_pwctrl_atten_init_en
                0x3ffe80c0                rx_gain_swp
                0x3ffe80e0                test_rffreq_txcap
 *fill*         0x3ffe80e3        0xd 
 .data          0x3ffe80f0       0x90 C:/Espressif/ESP8266_SDK\lib\libphy.a(phy_chip_v6_cal.o)
                0x3ffe80f0                dpd_index
                0x3ffe8150                dpd_db2linear
 .data          0x3ffe8180        0x4 C:/Espressif/ESP8266_SDK\lib\libphy.a(phy_sleep.o)
                0x3ffe8180                chip_version
 .data          0x3ffe8184        0x1 C:/Espressif/ESP8266_SDK\lib\libpp.a(pm.o)
 *fill*         0x3ffe8185        0x3 
 .data          0x3ffe8188        0x8 C:/Espressif/ESP8266_SDK\lib\libpp.a(pp.o)
                0x3ffe8188                noise_now
                0x3ffe8189                idle_wait_ms
 .data          0x3ffe8190       0x40 C:/Espressif/ESP8266_SDK\lib\libpp.a(rate_control.o)
 .data          0x3ffe81d0      0x22c C:/Espressif/ESP8266_SDK\lib\libpp.a(trc.o)
 .data          0x3ffe83fc        0x4 C:/Espressif/ESP8266_SDK\lib\libpp.a(wdev.o)
 .data          0x3ffe8400      0x1a8 C:/Espressif/ESP8266_SDK\lib\libnet80211.a(ieee80211_phy.o)
 *fill*         0x3ffe85a8        0x8 
 .data          0x3ffe85b0       0x26 C:/Espressif/ESP8266_SDK\lib\libnet80211.a(ieee80211_proto.o)
                0x3ffe85b0                ieee80211_state_name
                0x3ffe85d0                ieee80211_addr_bcast
 *fill*         0x3ffe85d6        0x2 
 .data          0x3ffe85d8       0x1c C:/Espressif/ESP8266_SDK\lib\libnet80211.a(ieee80211_action.o)
 .data          0x3ffe85f4        0x4 C:/Espressif/ESP8266_SDK\lib\liblwip.a(dhcp.o)
 .data          0x3ffe85f8        0x8 C:/Espressif/ESP8266_SDK\lib\liblwip.a(dhcpserver.o)
 .data          0x3ffe8600        0x8 C:/Espressif/ESP8266_SDK\lib\liblwip.a(tcp.o)
 .data          0x3ffe8608      0x408 c:/espressif/xtensa-lx106-elf/bin/../lib/gcc/xtensa-lx106-elf/4.8.2/../../../../xtensa-lx106-elf/lib\libc.a(impure.o)
                0x3ffe8608                _impure_ptr
 .data          0x3ffe8a10       0x18 C:/Espressif/ESP8266_SDK\lib\libnet80211.a(ieee80211_crypto_ccmp.o)
                0x3ffe8a10                ccmp
 .data          0x3ffe8a28       0x18 C:/Espressif/ESP8266_SDK\lib\libnet80211.a(ieee80211_crypto_tkip.o)
                0x3ffe8a28                tkip
 .data          0x3ffe8a40       0x18 C:/Espressif/ESP8266_SDK\lib\libnet80211.a(ieee80211_crypto_wep.o)
                0x3ffe8a40                wep
 *(.data.*)
 *(.gnu.linkonce.d.*)
 *(.data1)
 *(.sdata)
 *(.sdata.*)
 *(.gnu.linkonce.s.*)
 *(.sdata2)
 *(.sdata2.*)
 *(.gnu.linkonce.s2.*)
 *(.jcr)
                0x3ffe8a58                _data_end = ABSOLUTE (.)

.rodata         0x3ffe8a60      0xc80
                0x3ffe8a60                _rodata_start = ABSOLUTE (.)
 *(.rodata)
 .rodata        0x3ffe8a60        0x2 C:/Espressif/ESP8266_SDK\lib\libmain.a(mem_manager.o)
 *fill*         0x3ffe8a62        0x2 
 .rodata        0x3ffe8a64        0x8 C:/Espressif/ESP8266_SDK\lib\libmain.a(eagle_lib.o)
 .rodata        0x3ffe8a6c        0x8 C:/Espressif/ESP8266_SDK\lib\libphy.a(phy_chip_v6.o)
 .rodata        0x3ffe8a74        0x4 C:/Espressif/ESP8266_SDK\lib\libnet80211.a(ieee80211_hostap.o)
 .rodata        0x3ffe8a78        0x4 C:/Espressif/ESP8266_SDK\lib\libnet80211.a(ieee80211_output.o)
 *fill*         0x3ffe8a7c        0x4 
 .rodata        0x3ffe8a80       0x70 C:/Espressif/ESP8266_SDK\lib\libnet80211.a(ieee80211_proto.o)
 .rodata        0x3ffe8af0        0x8 C:/Espressif/ESP8266_SDK\lib\libnet80211.a(wl_cnx.o)
 .rodata        0x3ffe8af8        0x8 C:/Espressif/ESP8266_SDK\lib\liblwip.a(dhcpserver.o)
 .rodata        0x3ffe8b00        0xc C:/Espressif/ESP8266_SDK\lib\liblwip.a(etharp.o)
                0x3ffe8b00                ethbroadcast
                0x3ffe8b06                ethzero
 .rodata        0x3ffe8b0c        0x8 C:/Espressif/ESP8266_SDK\lib\liblwip.a(ip_addr.o)
                0x3ffe8b0c                ip_addr_any
                0x3ffe8b10                ip_addr_broadcast
 *fill*         0x3ffe8b14        0xc 
 .rodata        0x3ffe8b20       0x14 C:/Espressif/ESP8266_SDK\lib\liblwip.a(memp.o)
                0x3ffe8b20                memp_sizes
 *fill*         0x3ffe8b34        0xc 
 .rodata        0x3ffe8b40       0x5c C:/Espressif/ESP8266_SDK\lib\liblwip.a(tcp.o)
                0x3ffe8b40                tcp_pcb_lists
                0x3ffe8b50                tcp_persist_backoff
                0x3ffe8b60                tcp_backoff
                0x3ffe8b70                tcp_state_str
 *fill*         0x3ffe8b9c        0x4 
 .rodata        0x3ffe8ba0        0x6 C:/Espressif/ESP8266_SDK\lib\libwpa.a(ap_config.o)
 *fill*         0x3ffe8ba6        0x2 
 .rodata        0x3ffe8ba8        0x8 C:/Espressif/ESP8266_SDK\lib\libwpa.a(wpa.o)
 .rodata        0x3ffe8bb0        0xc C:/Espressif/ESP8266_SDK\lib\libwpa.a(wpa_common.o)
 .rodata        0x3ffe8bbc      0x100 c:/espressif/xtensa-lx106-elf/bin/../lib/gcc/xtensa-lx106-elf/4.8.2\libgcc.a(_popcount_tab.o)
                0x3ffe8bbc                __popcount_tab
 *(.rodata.*)
 .rodata.str1.4
                0x3ffe8cbc       0xff C:/Espressif/ESP8266_SDK\lib\libmain.a(app_main.o)
 *fill*         0x3ffe8dbb        0x1 
 .rodata.str1.4
                0x3ffe8dbc        0xf C:/Espressif/ESP8266_SDK\lib\libmain.a(ets_timer.o)
 *fill*         0x3ffe8dcb        0x1 
 .rodata.str1.4
                0x3ffe8dcc       0x10 C:/Espressif/ESP8266_SDK\lib\libmain.a(mem_manager.o)
 .rodata.str1.4
                0x3ffe8ddc      0x119 C:/Espressif/ESP8266_SDK\lib\libmain.a(user_interface.o)
                                0x126 (size before relaxing)
 *fill*         0x3ffe8ef5        0x3 
 .rodata.str1.4
                0x3ffe8ef8       0x17 C:/Espressif/ESP8266_SDK\lib\libmain.a(eagle_lwip_if.o)
                                 0x47 (size before relaxing)
 *fill*         0x3ffe8f0f        0x1 
 .rodata.str1.4
                0x3ffe8f10       0x3d C:/Espressif/ESP8266_SDK\lib\libphy.a(phy_chip_v6_ana.o)
                                 0x45 (size before relaxing)
 *fill*         0x3ffe8f4d        0x3 
 .rodata.str1.4
                0x3ffe8f50       0xca C:/Espressif/ESP8266_SDK\lib\libphy.a(phy_chip_v6.o)
                                 0xce (size before relaxing)
 *fill*         0x3ffe901a        0x2 
 .rodata.str1.4
                0x3ffe901c      0x179 C:/Espressif/ESP8266_SDK\lib\libphy.a(phy_chip_v6_cal.o)
 *fill*         0x3ffe9195        0x3 
 .rodata.str1.4
                0x3ffe9198       0x1d C:/Espressif/ESP8266_SDK\lib\libphy.a(phy_chip_v6_unused.o)
 *fill*         0x3ffe91b5        0x3 
 .rodata.str1.4
                0x3ffe91b8       0x2b C:/Espressif/ESP8266_SDK\lib\libpp.a(lmac.o)
                                 0x33 (size before relaxing)
 *fill*         0x3ffe91e3        0x1 
 .rodata.str1.4
                0x3ffe91e4      0x15b C:/Espressif/ESP8266_SDK\lib\libpp.a(pm.o)
                                0x17f (size before relaxing)
 *fill*         0x3ffe933f        0x1 
 .rodata.str1.4
                0x3ffe9340       0x16 C:/Espressif/ESP8266_SDK\lib\libpp.a(pp.o)
                                 0x1e (size before relaxing)
 *fill*         0x3ffe9356        0x2 
 .rodata.str1.4
                0x3ffe9358       0x39 C:/Espressif/ESP8266_SDK\lib\libpp.a(trc.o)
 *fill*         0x3ffe9391        0x3 
 .rodata.str1.4
                0x3ffe9394        0xd C:/Espressif/ESP8266_SDK\lib\libpp.a(wdev.o)
                                 0x15 (size before relaxing)
 *fill*         0x3ffe93a1        0x3 
 .rodata.str1.4
                0x3ffe93a4       0x44 C:/Espressif/ESP8266_SDK\lib\libpp.a(if_hwctrl.o)
 .rodata.str1.4
                0x3ffe93e8       0x37 C:/Espressif/ESP8266_SDK\lib\libnet80211.a(ieee80211.o)
                                 0x42 (size before relaxing)
 *fill*         0x3ffe941f        0x1 
 .rodata.str1.4
                0x3ffe9420       0x19 C:/Espressif/ESP8266_SDK\lib\libnet80211.a(ieee80211_ht.o)
 *fill*         0x3ffe9439        0x3 
 .rodata.str1.4
                0x3ffe943c       0x27 C:/Espressif/ESP8266_SDK\lib\libnet80211.a(ieee80211_output.o)
                                 0x2f (size before relaxing)
 *fill*         0x3ffe9463        0x1 
 .rodata.str1.4
                0x3ffe9464       0x32 C:/Espressif/ESP8266_SDK\lib\libnet80211.a(ieee80211_proto.o)
 *fill*         0x3ffe9496        0x2 
 .rodata.str1.4
                0x3ffe9498       0x24 C:/Espressif/ESP8266_SDK\lib\libnet80211.a(ieee80211_scan.o)
 .rodata.str1.4
                0x3ffe94bc       0x99 C:/Espressif/ESP8266_SDK\lib\libnet80211.a(wl_cnx.o)
 *fill*         0x3ffe9555        0x3 
 .rodata.str1.4
                0x3ffe9558       0x25 C:/Espressif/ESP8266_SDK\lib\liblwip.a(dhcpserver.o)
 *fill*         0x3ffe957d        0x3 
 .rodata.str1.4
                0x3ffe9580        0xf C:/Espressif/ESP8266_SDK\lib\liblwip.a(dns.o)
 *fill*         0x3ffe958f        0x1 
 .rodata.str1.4
                0x3ffe9590       0x11 C:/Espressif/ESP8266_SDK\lib\liblwip.a(ip.o)
 *fill*         0x3ffe95a1        0x3 
 .rodata.str1.4
                0x3ffe95a4       0x76 C:/Espressif/ESP8266_SDK\lib\liblwip.a(tcp.o)
 *fill*         0x3ffe961a        0x2 
 .rodata.str1.4
                0x3ffe961c       0x3c C:/Espressif/ESP8266_SDK\lib\libwpa.a(wpa_auth.o)
                                 0x43 (size before relaxing)
 .rodata.str1.4
                0x00000000       0x17 C:/Espressif/ESP8266_SDK\lib\libwpa.a(wpa.o)
 .rodata.str1.4
                0x3ffe9658       0x45 C:/Espressif/ESP8266_SDK\lib\libwpa.a(wpa_common.o)
 *fill*         0x3ffe969d        0x3 
 .rodata.str1.4
                0x3ffe96a0       0x36 C:/Espressif/ESP8266_SDK\lib\libwpa.a(wpa_main.o)
 .rodata.str1.4
                0x00000000       0x38 c:/espressif/xtensa-lx106-elf/bin/../lib/gcc/xtensa-lx106-elf/4.8.2/../../../../xtensa-lx106-elf/lib\libc.a(impure.o)
                                  0x2 (size before relaxing)
 *(.gnu.linkonce.r.*)
 *(.rodata1)
                0x3ffe96d6                __XT_EXCEPTION_TABLE__ = ABSOLUTE (.)
 *(.xt_except_table)
 *(.gcc_except_table)
 *(.gnu.linkonce.e.*)
 *(.gnu.version_r)
 *(.eh_frame)
 *crtbegin.o(.ctors)
 *(EXCLUDE_FILE(*crtend.o) .ctors)
 *(SORT(.ctors.*))
 *(.ctors)
 *crtbegin.o(.dtors)
 *(EXCLUDE_FILE(*crtend.o) .dtors)
 *(SORT(.dtors.*))
 *(.dtors)
                0x3ffe96d6                __XT_EXCEPTION_DESCS__ = ABSOLUTE (.)
 *(.xt_except_desc)
 *(.gnu.linkonce.h.*)
                0x3ffe96d6                __XT_EXCEPTION_DESCS_END__ = ABSOLUTE (.)
 *(.xt_except_desc_end)
 *(.dynamic)
 *(.gnu.version_d)
                0x3ffe96d8                . = ALIGN (0x4)
 *fill*         0x3ffe96d6        0x2 
                0x3ffe96d8                _bss_table_start = ABSOLUTE (.)
                0x3ffe96d8        0x4 LONG 0x3ffe96e0 _bss_start
                0x3ffe96dc        0x4 LONG 0x3fff1188 _bss_end
                0x3ffe96e0                _bss_table_end = ABSOLUTE (.)
                0x3ffe96e0                _rodata_end = ABSOLUTE (.)

.bss            0x3ffe96e0     0x7aa8
                0x3ffe96e0                . = ALIGN (0x8)
                0x3ffe96e0                _bss_start = ABSOLUTE (.)
 *(.dynsbss)
 *(.sbss)
 *(.sbss.*)
 *(.gnu.linkonce.sb.*)
 *(.scommon)
 *(.sbss2)
 *(.sbss2.*)
 *(.gnu.linkonce.sb2.*)
 *(.dynbss)
 *(.bss)
 .bss           0x3ffe96e0       0x44 C:/Espressif/ESP8266_SDK\lib\libmain.a(app_main.o)
                0x3ffe96e0                wdt_eventq
                0x3ffe96e8                info
                0x3ffe970c                user_init_flag
                0x3ffe9710                check_timeouts_timer
 .bss           0x3ffe9724       0x18 C:/Espressif/ESP8266_SDK\lib\libmain.a(mem_manager.o)
 *fill*         0x3ffe973c        0x4 
 .bss           0x3ffe9740      0x111 C:/Espressif/ESP8266_SDK\lib\libmain.a(user_interface.o)
                0x3ffe982c                done_cb
                0x3ffe9830                promiscuous_cb
 *fill*         0x3ffe9851        0x3 
 .bss           0x3ffe9854        0x8 C:/Espressif/ESP8266_SDK\lib\libmain.a(eagle_lwip_if.o)
 .bss           0x3ffe985c        0x4 C:/Espressif/ESP8266_SDK\lib\libphy.a(phy.o)
 .bss           0x3ffe9860      0x38b C:/Espressif/ESP8266_SDK\lib\libphy.a(phy_chip_v6.o)
                0x3ffe9860                g_phyFuns
                0x3ffe9864                rxiq_compute_num
                0x3ffe9868                rxdc_init_flag
                0x3ffe986c                check_result
                0x3ffe9870                chip6_sleep_params
                0x3ffe9a48                chip6_phy_init_ctrl
                0x3ffe9ab6                phy_freq_offset
                0x3ffe9ab8                do_pwctrl_flag
                0x3ffe9ab9                pwctrl_debug
                0x3ffe9aba                txbk_dpdby_flag
                0x3ffe9abc                sw_scan_mode
                0x3ffe9ad0                periodic_cal_dc_num
                0x3ffe9ad4                periodic_cal_flag
                0x3ffe9ad5                bbpll_cal_flag
                0x3ffe9ad6                deep_sleep_en
                0x3ffe9ad8                noise_array
                0x3ffe9be0                tx_pwctrl_atten_init
 *fill*         0x3ffe9beb        0x1 
 .bss           0x3ffe9bec        0x6 C:/Espressif/ESP8266_SDK\lib\libphy.a(phy_chip_v6_cal.o)
                0x3ffe9bec                loop_pwctrl_pwdet_error_accum_high_power
                0x3ffe9bee                tx_pwctrl_pk_num
                0x3ffe9bef                loop_pwctrl_correct_atten_high_power
                0x3ffe9bf0                tx_pwctrl_set_chan_flag
                0x3ffe9bf1                rxiq_cover_fail_num
 *fill*         0x3ffe9bf2        0x2 
 .bss           0x3ffe9bf4        0x4 C:/Espressif/ESP8266_SDK\lib\libphy.a(phy_sleep.o)
                0x3ffe9bf4                periodic_cal_sat
                0x3ffe9bf5                software_slp_reject
                0x3ffe9bf6                SDIO_slp_reject
                0x3ffe9bf7                hardware_reject
 *fill*         0x3ffe9bf8        0x8 
 .bss           0x3ffe9c00      0x150 C:/Espressif/ESP8266_SDK\lib\libpp.a(lmac.o)
                0x3ffe9c04                lmacConfMib
 .bss           0x3ffe9d50      0x107 C:/Espressif/ESP8266_SDK\lib\libpp.a(pm.o)
 *fill*         0x3ffe9e57        0x9 
 .bss           0x3ffe9e60      0x232 C:/Espressif/ESP8266_SDK\lib\libpp.a(pp.o)
                0x3ffe9e74                pend_flag_noise_check
                0x3ffe9e78                time_num
                0x3ffe9e7c                pend_flag_periodic_cal
                0x3ffe9e7d                idle_timer_enabled
 *fill*         0x3ffea092        0xe 
 .bss           0x3ffea0a0      0x100 C:/Espressif/ESP8266_SDK\lib\libpp.a(rate_control.o)
 .bss           0x3ffea1a0      0x268 C:/Espressif/ESP8266_SDK\lib\libpp.a(trc.o)
 *fill*         0x3ffea408        0x8 
 .bss           0x3ffea410     0x40c1 C:/Espressif/ESP8266_SDK\lib\libpp.a(wdev.o)
                0x3ffea410                wDevCtrl
 *fill*         0x3ffee4d1        0xf 
 .bss           0x3ffee4e0     0x11bc C:/Espressif/ESP8266_SDK\lib\libpp.a(esf_buf.o)
 *fill*         0x3ffef69c        0x4 
 .bss           0x3ffef6a0       0x30 C:/Espressif/ESP8266_SDK\lib\libpp.a(if_hwctrl.o)
                0x3ffef6a0                interface_mask
                0x3ffef6b0                if_ctrl
 .bss           0x3ffef6d0      0x544 C:/Espressif/ESP8266_SDK\lib\libnet80211.a(ieee80211.o)
                0x3ffef6d0                g_ic
 .bss           0x3ffefc14       0x20 C:/Espressif/ESP8266_SDK\lib\libnet80211.a(ieee80211_hostap.o)
                0x3ffefc2c                TmpSTAAPCloseAP
                0x3ffefc2d                PendFreeBcnEb
 .bss           0x3ffefc34       0xcc C:/Espressif/ESP8266_SDK\lib\libnet80211.a(ieee80211_scan.o)
                0x3ffefc34                gScanStruct
                0x3ffefce8                auth_type
                0x3ffefcea                scannum
 .bss           0x3ffefd00       0x3c C:/Espressif/ESP8266_SDK\lib\libnet80211.a(wl_chm.o)
 *fill*         0x3ffefd3c        0x4 
 .bss           0x3ffefd40      0x710 C:/Espressif/ESP8266_SDK\lib\libnet80211.a(wl_cnx.o)
                0x3fff0448                sta_con_timer
                0x3fff044c                g_cnx_probe_rc_list_cb
 .bss           0x3fff0450       0x38 C:/Espressif/ESP8266_SDK\lib\liblwip.a(dhcp.o)
                0x3fff0450                dhcp_rx_options_given
                0x3fff0460                dhcp_rx_options_val
 .bss           0x3fff0488      0x248 C:/Espressif/ESP8266_SDK\lib\liblwip.a(dhcpserver.o)
                0x3fff0498                s
 .bss           0x3fff06d0      0x690 C:/Espressif/ESP8266_SDK\lib\liblwip.a(dns.o)
 .bss           0x3fff0d60      0x100 C:/Espressif/ESP8266_SDK\lib\liblwip.a(etharp.o)
 .bss           0x3fff0e60       0x10 C:/Espressif/ESP8266_SDK\lib\liblwip.a(ip_addr.o)
 .bss           0x3fff0e70       0x12 C:/Espressif/ESP8266_SDK\lib\liblwip.a(ip.o)
                0x3fff0e70                current_iphdr_dest
                0x3fff0e74                current_iphdr_src
                0x3fff0e78                current_netif
                0x3fff0e7c                current_header
 *fill*         0x3fff0e82        0x2 
 .bss           0x3fff0e84        0x9 C:/Espressif/ESP8266_SDK\lib\liblwip.a(netif.o)
                0x3fff0e84                netif_list
                0x3fff0e88                netif_default
 *fill*         0x3fff0e8d        0x3 
 .bss           0x3fff0e90        0x4 C:/Espressif/ESP8266_SDK\lib\liblwip.a(raw.o)
 .bss           0x3fff0e94       0x34 C:/Espressif/ESP8266_SDK\lib\liblwip.a(tcp_in.o)
                0x3fff0ec4                tcp_input_pcb
 .bss           0x3fff0ec8       0x1c C:/Espressif/ESP8266_SDK\lib\liblwip.a(tcp.o)
                0x3fff0ecc                tcp_active_pcbs
                0x3fff0ed0                tcp_tmp_pcb
                0x3fff0ed4                tcp_tw_pcbs
                0x3fff0ed8                tcp_bound_pcbs
                0x3fff0edc                tcp_listen_pcbs
                0x3fff0ee0                tcp_ticks
 .bss           0x3fff0ee4        0xc C:/Espressif/ESP8266_SDK\lib\liblwip.a(timers.o)
 .bss           0x3fff0ef0        0x4 C:/Espressif/ESP8266_SDK\lib\liblwip.a(udp.o)
                0x3fff0ef0                udp_pcbs
 .bss           0x3fff0ef4        0xc C:/Espressif/ESP8266_SDK\lib\liblwip.a(igmp.o)
 .bss           0x3fff0f00      0x27a C:/Espressif/ESP8266_SDK\lib\libwpa.a(wpa.o)
 *fill*         0x3fff117a        0x6 
 .bss           0x3fff1180        0x8 C:/Espressif/ESP8266_SDK\lib\libnet80211.a(ieee80211_crypto_tkip.o)
 *(.bss.*)
 *(.gnu.linkonce.b.*)
 *(COMMON)
                0x3fff1188                . = ALIGN (0x8)
                0x3fff1188                _bss_end = ABSOLUTE (.)
                0x3fff1188                _heap_start = ABSOLUTE (.)

.text           0x40100000     0x609e
                0x40100000                _stext = .
                0x40100000                _text_start = ABSOLUTE (.)
 *(.entry.text)
 *(.init.literal)
 *(.init)
 *(.literal .text .literal.* .text.* .stub .gnu.warning .gnu.linkonce.literal.* .gnu.linkonce.t.*.literal .gnu.linkonce.t.*)
 .text.user_init
                0x40100000       0x7c main.o
                                 0x84 (size before relaxing)
                0x40100018                user_init
 .text          0x4010007c      0x369 C:/Espressif/ESP8266_SDK\lib\libmain.a(app_main.o)
                                0x3a5 (size before relaxing)
                0x40100080                call_user_start
                0x40100128                wdt_feed
 *fill*         0x401003e5        0x3 
 .text          0x401003e8       0xd5 C:/Espressif/ESP8266_SDK\lib\libmain.a(ets_timer.o)
                                 0xe5 (size before relaxing)
                0x40100404                ets_timer_arm_new
 *fill*         0x401004bd        0x3 
 .text          0x401004c0      0x1d1 C:/Espressif/ESP8266_SDK\lib\libmain.a(mem_manager.o)
                                0x1f1 (size before relaxing)
                0x401004dc                pvPortMalloc
                0x40100594                vPortFree
                0x401005d4                pvPortCalloc
                0x401005fc                pvPortZalloc
                0x40100610                pvPortRealloc
                0x40100648                vPortInitialiseBlocks
 *fill*         0x40100691        0x3 
 .text          0x40100694      0x137 C:/Espressif/ESP8266_SDK\lib\libmain.a(spi_flash.o)
                                0x15f (size before relaxing)
                0x401006a4                spi_flash_get_id
                0x40100708                spi_flash_erase_sector
                0x4010073c                spi_flash_write
                0x4010078c                spi_flash_read
 *fill*         0x401007cb        0x1 
 .text          0x401007cc      0x124 C:/Espressif/ESP8266_SDK\lib\libmain.a(user_interface.o)
                                0x148 (size before relaxing)
                0x401007d0                system_restore
                0x4010081c                system_os_post
                0x40100848                system_rtc_mem_write
                0x4010089c                system_rtc_mem_read
 .literal       0x401008f0        0x0 c:/espressif/xtensa-lx106-elf/bin/../lib/gcc/xtensa-lx106-elf/4.8.2\libgcc.a(_muldi3.o)
                                  0x4 (size before relaxing)
 .literal       0x401008f0       0x10 c:/espressif/xtensa-lx106-elf/bin/../lib/gcc/xtensa-lx106-elf/4.8.2/../../../../xtensa-lx106-elf/lib\libc.a(rand.o)
                                 0x18 (size before relaxing)
 .literal       0x40100900        0x8 c:/espressif/xtensa-lx106-elf/bin/../lib/gcc/xtensa-lx106-elf/4.8.2/../../../../xtensa-lx106-elf/lib\libc.a(strlen.o)
                                  0xc (size before relaxing)
 .literal       0x40100908        0x4 c:/espressif/xtensa-lx106-elf/bin/../lib/gcc/xtensa-lx106-elf/4.8.2\libgcc.a(_addsubsf3.o)
                                  0xc (size before relaxing)
 .literal       0x4010090c        0x0 c:/espressif/xtensa-lx106-elf/bin/../lib/gcc/xtensa-lx106-elf/4.8.2\libgcc.a(_mulsf3.o)
                                 0x10 (size before relaxing)
 .literal       0x4010090c        0x0 c:/espressif/xtensa-lx106-elf/bin/../lib/gcc/xtensa-lx106-elf/4.8.2\libgcc.a(_divsf3.o)
                                 0x10 (size before relaxing)
 .literal       0x4010090c        0x0 c:/espressif/xtensa-lx106-elf/bin/../lib/gcc/xtensa-lx106-elf/4.8.2\libgcc.a(_fixsfsi.o)
                                  0x4 (size before relaxing)
 .literal       0x4010090c        0x0 c:/espressif/xtensa-lx106-elf/bin/../lib/gcc/xtensa-lx106-elf/4.8.2\libgcc.a(_fixunssfsi.o)
                                  0x4 (size before relaxing)
 .literal       0x4010090c        0x8 c:/espressif/xtensa-lx106-elf/bin/../lib/gcc/xtensa-lx106-elf/4.8.2\libgcc.a(_muldf3.o)
                                 0x10 (size before relaxing)
 .literal       0x40100914        0x0 c:/espressif/xtensa-lx106-elf/bin/../lib/gcc/xtensa-lx106-elf/4.8.2\libgcc.a(_divdf3.o)
                                 0x10 (size before relaxing)
 .literal       0x40100914        0x0 c:/espressif/xtensa-lx106-elf/bin/../lib/gcc/xtensa-lx106-elf/4.8.2\libgcc.a(_fixdfsi.o)
                                  0x4 (size before relaxing)
 .literal       0x40100914        0x4 c:/espressif/xtensa-lx106-elf/bin/../lib/gcc/xtensa-lx106-elf/4.8.2\libgcc.a(_truncdfsf2.o)
                                  0x8 (size before relaxing)
 .literal       0x40100918        0x4 c:/espressif/xtensa-lx106-elf/bin/../lib/gcc/xtensa-lx106-elf/4.8.2\libgcc.a(_popcountsi2.o)
 .literal       0x4010091c        0x0 c:/espressif/xtensa-lx106-elf/bin/../lib/gcc/xtensa-lx106-elf/4.8.2\libgcc.a(_divdi3.o)
                                 0x48 (size before relaxing)
 .literal       0x4010091c        0x0 c:/espressif/xtensa-lx106-elf/bin/../lib/gcc/xtensa-lx106-elf/4.8.2\libgcc.a(_umoddi3.o)
                                 0x40 (size before relaxing)
 .text          0x4010091c       0x36 c:/espressif/xtensa-lx106-elf/bin/../lib/gcc/xtensa-lx106-elf/4.8.2\libgcc.a(_muldi3.o)
                0x4010091c                __muldi3
 *fill*         0x40100952        0x2 
 .text          0x40100954       0x4f C:/Espressif/ESP8266_SDK\lib\libphy.a(phy.o)
                                 0x53 (size before relaxing)
                0x4010095c                register_phy_ops
                0x4010097c                phy_change_channel
                0x40100998                phy_get_mactime
 *fill*         0x401009a3        0x1 
 .text          0x401009a4       0xf3 C:/Espressif/ESP8266_SDK\lib\libphy.a(phy_sleep.o)
                                0x103 (size before relaxing)
                0x401009b0                pm_rtc_clock_cali
                0x40100a6c                clockgate_watchdog
 *fill*         0x40100a97        0x1 
 .text          0x40100a98     0x13fa C:/Espressif/ESP8266_SDK\lib\libpp.a(lmac.o)
                               0x1766 (size before relaxing)
                0x40100a9c                lmacIsActive
                0x40100ab0                lmacIsIdle
                0x40100e78                lmacSetAcParam
                0x40100ecc                lmacProcessTXStartData
                0x40101074                lmacProcessTxSuccess
                0x401011ac                GetAccess
                0x401011b8                lmacDiscardAgedMSDU
                0x401011cc                lmacRecycleMPDU
                0x401016c0                lmacProcessCollisions
                0x4010171c                lmacProcessCollision
                0x40101794                lmacMSDUAged
                0x40101b18                lmacProcessCtsTimeout
                0x40101b60                lmacProcessAckTimeout
                0x40101b9c                lmacProcessRtsStart
                0x40101ba8                lmacProcessTxRtsError
                0x40101c44                lmacProcessTxError
                0x40101ccc                lmacTxFrame
                0x40101e7c                lmacRxDone
 *fill*         0x40101e92        0x2 
 .text          0x40101e94      0xdac C:/Espressif/ESP8266_SDK\lib\libpp.a(pp.o)
                                0xf1c (size before relaxing)
                0x40101ebc                ppProcessWaitQ
                0x40101ed0                ppRecycleRxPkt
                0x40101f2c                ppCheckTxIdle
                0x401021e8                ppProcessTxQ
                0x40102260                ppGetTxQFirstAvail_Locked
                0x401022b0                ppFetchTxQFirstAvail
                0x401022f0                ppDequeueTxQ
                0x40102318                ppRollBackTxQ
                0x4010233c                ppRecordBarRRC
                0x4010234c                ppTxqUpdateBitmap
                0x40102370                ppEnqueueTxDone
                0x401023e0                ppEnqueueRxq
                0x40102ae8                ppDiscardMPDU
                0x40102b0c                pp_post
                0x40102b54                ppCalTxop
                0x40102bd0                ppCalFrameTimes
 .text          0x40102c40       0xf5 C:/Espressif/ESP8266_SDK\lib\libpp.a(rate_control.o)
                                0x109 (size before relaxing)
                0x40102c60                RC_GetAckRate
                0x40102c6c                RC_GetRtsRate
                0x40102c7c                RC_GetAckTime
                0x40102c90                RC_GetCtsTime
                0x40102cc8                RC_GetBlockAckTime
 *fill*         0x40102d35        0x3 
 .text          0x40102d38      0x7f9 C:/Espressif/ESP8266_SDK\lib\libpp.a(trc.o)
                                0x81d (size before relaxing)
                0x40102eb0                rcUpdateTxDone
                0x40102f44                rcUpdateRxDone
                0x40102fa0                rcUpdateDataRxDone
                0x40102fb8                rcGetSched
                0x40103060                rcGetRate
                0x40103464                rcReachRetryLimit
                0x4010347c                trc_NeedRTS
 *fill*         0x40103531        0x3 
 .text          0x40103534      0xc84 C:/Espressif/ESP8266_SDK\lib\libpp.a(wdev.o)
                                0xea8 (size before relaxing)
                0x401037d0                wDev_ProcessFiq
                0x40103a68                wDev_EnableTransmit
                0x40103aac                wDev_DisableTransmit
                0x40103acc                Tx_Copy2Queue
                0x40103b14                wDev_ProcessCollision
                0x40103b38                wDev_GetTxqCollisions
                0x40103b4c                wDev_ClearTxqCollisions
                0x40103b68                wDev_SetWaitingQueue
                0x40103bb4                wDev_ClearWaitingQueue
                0x40103bd8                wDev_SetFrameAckType
                0x40103c34                wDev_AppendRxBlocks
                0x40103d34                wDev_GetBAInfo
                0x40103d64                wDevDisableRx
                0x40103da4                wdev_go_sniffer
 .text          0x401041b8      0x25e C:/Espressif/ESP8266_SDK\lib\libpp.a(esf_buf.o)
                                0x2fa (size before relaxing)
                0x401041bc                esf_rx_buf_alloc
                0x40104210                esf_buf_alloc
                0x40104334                esf_buf_recycle
 *fill*         0x40104416        0x2 
 .text          0x40104418       0x3d C:/Espressif/ESP8266_SDK\lib\libnet80211.a(ieee80211_sta.o)
                                 0x41 (size before relaxing)
                0x4010441c                wifi_station_stop
 *fill*         0x40104455        0x3 
 .text          0x40104458       0xcb C:/Espressif/ESP8266_SDK\lib\libnet80211.a(wl_chm.o)
                                 0xe7 (size before relaxing)
                0x4010445c                chm_acquire_lock
                0x401044a0                chm_release_lock
                0x401044b8                chm_cancel_op
                0x401044f0                chm_return_home_channel
                0x4010451c                chm_get_current_channel
 *fill*         0x40104523        0x1 
 .text          0x40104524       0x21 C:/Espressif/ESP8266_SDK\lib\liblwip.a(dns.o)
                0x4010452c                dns_tmr
 *fill*         0x40104545        0x3 
 .text          0x40104548       0x2f C:/Espressif/ESP8266_SDK\lib\liblwip.a(etharp.o)
                                 0x37 (size before relaxing)
 *fill*         0x40104577        0x1 
 .text          0x40104578      0x1c4 C:/Espressif/ESP8266_SDK\lib\liblwip.a(tcp.o)
                                0x1e0 (size before relaxing)
 .text          0x4010473c      0x15c C:/Espressif/ESP8266_SDK\lib\liblwip.a(tcp_out.o)
                                0x164 (size before relaxing)
 .text          0x40104898       0xb0 C:/Espressif/ESP8266_SDK\lib\liblwip.a(timers.o)
                                 0xc0 (size before relaxing)
 .text          0x40104948       0x15 C:/Espressif/ESP8266_SDK\lib\libwpa.a(wpa.o)
                                 0x1d (size before relaxing)
 *fill*         0x4010495d        0x3 
 .text          0x40104960       0x1e C:/Espressif/ESP8266_SDK\lib\libwpa.a(wpa_main.o)
                                 0x26 (size before relaxing)
                0x40104960                dhcp_bind_check
 *fill*         0x4010497e        0x2 
 .text          0x40104980       0x4b c:/espressif/xtensa-lx106-elf/bin/../lib/gcc/xtensa-lx106-elf/4.8.2/../../../../xtensa-lx106-elf/lib\libc.a(rand.o)
                                 0x4f (size before relaxing)
                0x40104980                srand
                0x40104990                rand
 *fill*         0x401049cb        0x1 
 .text          0x401049cc       0x5b c:/espressif/xtensa-lx106-elf/bin/../lib/gcc/xtensa-lx106-elf/4.8.2/../../../../xtensa-lx106-elf/lib\libc.a(strlen.o)
                0x401049cc                strlen
 *fill*         0x40104a27        0x1 
 .text          0x40104a28      0x1ff c:/espressif/xtensa-lx106-elf/bin/../lib/gcc/xtensa-lx106-elf/4.8.2\libgcc.a(_addsubsf3.o)
                0x40104a44                __addsf3
                0x40104b2c                __subsf3
 *fill*         0x40104c27        0x1 
 .text          0x40104c28      0x15d c:/espressif/xtensa-lx106-elf/bin/../lib/gcc/xtensa-lx106-elf/4.8.2\libgcc.a(_mulsf3.o)
                0x40104ca0                __mulsf3
 *fill*         0x40104d85        0x3 
 .text          0x40104d88      0x135 c:/espressif/xtensa-lx106-elf/bin/../lib/gcc/xtensa-lx106-elf/4.8.2\libgcc.a(_divsf3.o)
                0x40104e04                __divsf3
 *fill*         0x40104ebd        0x3 
 .text          0x40104ec0       0x40 c:/espressif/xtensa-lx106-elf/bin/../lib/gcc/xtensa-lx106-elf/4.8.2\libgcc.a(_fixsfsi.o)
                0x40104ec0                __fixsfsi
 .text          0x40104f00       0x51 c:/espressif/xtensa-lx106-elf/bin/../lib/gcc/xtensa-lx106-elf/4.8.2\libgcc.a(_fixunssfsi.o)
                0x40104f00                __fixunssfsi
 *fill*         0x40104f51        0x3 
 .text          0x40104f54      0x29b c:/espressif/xtensa-lx106-elf/bin/../lib/gcc/xtensa-lx106-elf/4.8.2\libgcc.a(_muldf3.o)
                0x40105034                __muldf3
 *fill*         0x401051ef        0x1 
 .text          0x401051f0      0x20b c:/espressif/xtensa-lx106-elf/bin/../lib/gcc/xtensa-lx106-elf/4.8.2\libgcc.a(_divdf3.o)
                0x401052d8                __divdf3
 *fill*         0x401053fb        0x1 
 .text          0x401053fc       0x48 c:/espressif/xtensa-lx106-elf/bin/../lib/gcc/xtensa-lx106-elf/4.8.2\libgcc.a(_fixdfsi.o)
                0x401053fc                __fixdfsi
 .text          0x40105444       0xa0 c:/espressif/xtensa-lx106-elf/bin/../lib/gcc/xtensa-lx106-elf/4.8.2\libgcc.a(_truncdfsf2.o)
                0x40105444                __truncdfsf2
 .text          0x401054e4       0x21 c:/espressif/xtensa-lx106-elf/bin/../lib/gcc/xtensa-lx106-elf/4.8.2\libgcc.a(_popcountsi2.o)
                0x401054e4                __popcountsi2
 *fill*         0x40105505        0x3 
 .text          0x40105508      0x3eb c:/espressif/xtensa-lx106-elf/bin/../lib/gcc/xtensa-lx106-elf/4.8.2\libgcc.a(_divdi3.o)
                                0x41b (size before relaxing)
                0x40105508                __divdi3
 *fill*         0x401058f3        0x1 
 .text          0x401058f4      0x33a c:/espressif/xtensa-lx106-elf/bin/../lib/gcc/xtensa-lx106-elf/4.8.2\libgcc.a(_umoddi3.o)
                                0x366 (size before relaxing)
                0x401058f4                __umoddi3
 *fill*         0x40105c2e        0x0 
 *fill*         0x40105c2e        0x0 
 *fill*         0x40105c2e        0x0 
 *fill*         0x40105c2e        0x2 
 .text          0x40105c30      0x145 c:/espressif/xtensa-lx106-elf/bin/../lib/gcc/xtensa-lx106-elf/4.8.2/../../../../xtensa-lx106-elf/lib\libc.a(memcpy.o)
                0x40105c74                memcpy
 *fill*         0x40105d75        0x3 
 .text          0x40105d78       0x4c c:/espressif/xtensa-lx106-elf/bin/../lib/gcc/xtensa-lx106-elf/4.8.2\libgcc.a(_udivsi3.o)
                0x40105d78                __udivsi3
 .text          0x40105dc4       0x39 c:/espressif/xtensa-lx106-elf/bin/../lib/gcc/xtensa-lx106-elf/4.8.2\libgcc.a(_umodsi3.o)
                0x40105dc4                __umodsi3
 *fill*         0x40105dfd        0x0 
 *fill*         0x40105dfd        0x3 
 .text          0x40105e00       0x48 c:/espressif/xtensa-lx106-elf/bin/../lib/gcc/xtensa-lx106-elf/4.8.2\libgcc.a(_umulsidi3.o)
                0x40105e00                __umulsidi3
 *fill*         0x40105e48        0x0 
 .text          0x40105e48        0x2 C:/Espressif/ESP8266_SDK\lib\libphy.a(phy_chip_v6.o)
                0x40105e48                ram_tx_mac_disable
 *fill*         0x40105e4a        0x0 
 *fill*         0x40105e4a        0x0 
 *fill*         0x40105e4a        0x0 
 *fill*         0x40105e4a        0x0 
 *fill*         0x40105e4a        0x0 
 *fill*         0x40105e4a        0x2 
 .text          0x40105e4c       0x25 C:/Espressif/ESP8266_SDK\lib\libnet80211.a(ieee80211_hostap.o)
 *fill*         0x40105e71        0x3 
 .text          0x40105e74       0x56 C:/Espressif/ESP8266_SDK\lib\libnet80211.a(ieee80211_input.o)
                0x40105e74                ieee80211_parse_action
 *fill*         0x40105eca        0x0 
 *fill*         0x40105eca        0x0 
 *fill*         0x40105eca        0x0 
 *fill*         0x40105eca        0x0 
 *fill*         0x40105eca        0x2 
 .text          0x40105ecc       0x11 C:/Espressif/ESP8266_SDK\lib\libwpa.a(wpa_auth.o)
 *fill*         0x40105edd        0x0 
 *fill*         0x40105edd        0x0 
 *fill*         0x40105edd        0x3 
 .text          0x40105ee0       0x7c c:/espressif/xtensa-lx106-elf/bin/../lib/gcc/xtensa-lx106-elf/4.8.2/../../../../xtensa-lx106-elf/lib\libc.a(memset.o)
                0x40105f0c                memset
 *fill*         0x40105f5c        0x0 
 *fill*         0x40105f5c        0x0 
 .text          0x40105f5c       0x64 c:/espressif/xtensa-lx106-elf/bin/../lib/gcc/xtensa-lx106-elf/4.8.2\libgcc.a(_divsi3.o)
                0x40105f5c                __divsi3
 .text          0x40105fc0       0x49 c:/espressif/xtensa-lx106-elf/bin/../lib/gcc/xtensa-lx106-elf/4.8.2\libgcc.a(_modsi3.o)
                0x40105fc0                __modsi3
 *fill*         0x40106009        0x3 
 .text          0x4010600c       0x18 c:/espressif/xtensa-lx106-elf/bin/../lib/gcc/xtensa-lx106-elf/4.8.2\libgcc.a(_ashrdi3.o)
                0x4010600c                __ashrdi3
 *fill*         0x40106024        0x0 
 *fill*         0x40106024        0x0 
 *fill*         0x40106024        0x0 
 *fill*         0x40106024        0x0 
 .text          0x40106024       0x44 c:/espressif/xtensa-lx106-elf/bin/../lib/gcc/xtensa-lx106-elf/4.8.2\libgcc.a(_floatsisf.o)
                0x40106024                __floatunsisf
                0x4010602c                __floatsisf
 *fill*         0x40106068        0x0 
 *fill*         0x40106068        0x0 
 .text          0x40106068       0x36 c:/espressif/xtensa-lx106-elf/bin/../lib/gcc/xtensa-lx106-elf/4.8.2\libgcc.a(_floatsidf.o)
                0x40106068                __floatunsidf
                0x40106070                __floatsidf
 *fill*         0x4010609e        0x0 
 *fill*         0x4010609e        0x0 
 *fill*         0x4010609e        0x0 
 *(.fini.literal)
 *(.fini)
 *(.gnu.version)
                0x4010609e                _text_end = ABSOLUTE (.)
                0x4010609e                _etext = .

.lit4           0x401060a0        0x0
                0x401060a0                _lit4_start = ABSOLUTE (.)
 *(*.lit4)
 *(.lit4.*)
 *(.gnu.linkonce.lit4.*)
                0x401060a0                _lit4_end = ABSOLUTE (.)

.irom0.text     0x40240000    0x21868
                0x40240000                _irom0_text_start = ABSOLUTE (.)
 *(.irom0.literal .irom.literal .irom.text.literal .irom0.text .irom.text)
 .irom0.text    0x40240000      0x56d C:/Espressif/ESP8266_SDK\lib\libmain.a(app_main.o)
                                0x665 (size before relaxing)
                0x4024000c                read_macaddr_from_otp
                0x40240260                wdt_init
 *fill*         0x4024056d        0x3 
 .irom0.text    0x40240570       0x6c C:/Espressif/ESP8266_SDK\lib\libmain.a(mem_manager.o)
                                 0x74 (size before relaxing)
                0x40240574                vApplicationMallocFailedHook
                0x4024058c                xPortGetFreeHeapSize
 .irom0.text    0x402405dc     0x1b21 C:/Espressif/ESP8266_SDK\lib\libmain.a(user_interface.o)
                               0x1fb5 (size before relaxing)
                0x402405e8                os_printf
                0x402407c8                system_set_os_print
                0x402407d4                system_pp_recycle_rx_pkt
                0x402407e8                system_adc_read
                0x40240880                system_restart
                0x402408e4                system_upgrade_userbin_set
                0x402408fc                system_upgrade_userbin_check
                0x40240918                system_upgrade_flag_set
                0x40240938                system_upgrade_flag_check
                0x40240954                system_upgrade_reboot
                0x40240b60                system_deep_sleep
                0x40240bc4                system_timer_reinit
                0x40240be0                system_get_time
                0x40240bec                system_relative_time
                0x40240c0c                system_station_got_ip_set
                0x40240cc4                system_print_meminfo
                0x40240d24                system_get_free_heap_size
                0x40240d3c                system_get_chip_id
                0x40240d60                system_rtc_clock_cali_proc
                0x40240d74                system_get_rtc_time
                0x40240d88                system_mktime
                0x40240e58                system_init_done_cb
                0x40240e60                wifi_softap_dhcps_start
                0x40240e9c                wifi_softap_dhcps_stop
                0x40240ed8                wifi_station_dhcpc_start
                0x40240f2c                wifi_station_dhcpc_stop
                0x40240f64                wifi_get_opmode
                0x40240f78                wifi_set_opmode_local
                0x40240fc8                wifi_set_opmode
                0x40241020                wifi_param_save_protect
                0x402410e0                wifi_station_get_config
                0x40241138                wifi_station_get_ap_info
                0x402411f0                wifi_station_ap_number_set
                0x4024131c                wifi_station_set_config
                0x40241430                wifi_station_get_current_ap_id
                0x40241448                wifi_station_ap_change
                0x4024152c                wifi_station_scan
                0x40241570                wifi_station_get_auto_connect
                0x40241584                wifi_station_set_auto_connect
                0x402415b8                wifi_station_connect
                0x40241604                wifi_station_disconnect
                0x4024166c                wifi_station_get_connect_status
                0x4024169c                wifi_softap_cacl_mac
                0x4024170c                wifi_softap_set_default_ssid
                0x40241764                wifi_softap_get_config
                0x40241810                wifi_softap_set_config
                0x40241a00                wifi_softap_set_station_info
                0x40241a74                wifi_softap_get_station_info
                0x40241b04                wifi_softap_free_station_info
                0x40241b3c                wifi_softap_deauth
                0x40241be8                wifi_get_phy_mode
                0x40241bf0                wifi_set_phy_mode
                0x40241c7c                wifi_set_sleep_type
                0x40241c9c                wifi_get_sleep_type
                0x40241cb4                wifi_get_channel
                0x40241ccc                wifi_set_channel
                0x40241d04                wifi_promiscuous_enable
                0x40241da8                wifi_set_promiscuous_rx_cb
                0x40241db4                wifi_get_ip_info
                0x40241e28                wifi_set_ip_info
                0x40241ee4                wifi_get_macaddr
                0x40241f44                wifi_set_macaddr
                0x40241ff8                wifi_status_led_install
                0x40242040                system_os_task
                0x4024206c                system_uart_swap
                0x402420f8                system_get_sdk_version
 *fill*         0x402420fd        0x3 
 .irom0.text    0x40242100      0x56a C:/Espressif/ESP8266_SDK\lib\libmain.a(eagle_lib.o)
                                0x57a (size before relaxing)
                0x40242104                divide
                0x40242140                skip_atoi
                0x402422c0                ets_vsnprintf
                0x40242620                ets_vsprintf
                0x40242644                ets_sprintf
 *fill*         0x4024266a        0x2 
 .irom0.text    0x4024266c      0x212 C:/Espressif/ESP8266_SDK\lib\libmain.a(eagle_lwip_if.o)
                                0x26e (size before relaxing)
                0x402426f8                eagle_lwip_if_alloc
                0x4024285c                eagle_lwip_getif
 *fill*         0x4024287e        0x2 
 .irom0.text    0x40242880       0xfa C:/Espressif/ESP8266_SDK\lib\libphy.a(phy.o)
                                0x11e (size before relaxing)
                0x40242884                rf_init
                0x402428a0                bb_init
                0x402428b8                phy_init
                0x402428e8                RFChannelSel
                0x40242904                phy_delete_channel
                0x4024291c                phy_enable_agc
                0x40242934                phy_disable_agc
                0x4024294c                phy_initialize_bb
                0x40242964                phy_set_sense
 *fill*         0x4024297a        0x2 
 .irom0.text    0x4024297c     0x14da C:/Espressif/ESP8266_SDK\lib\libphy.a(phy_chip_v6_ana.o)
                               0x168e (size before relaxing)
                0x40242980                ram_pbus_set_rxgain
                0x40242a58                ram_pbus_debugmode
                0x40242b0c                ram_pbus_xpd_tx_on
                0x40242b78                set_rf_freq_offset
                0x40242bec                chip_v6_rxmax_ext_ana
                0x40242d3c                ram_chip_v6_rx_init
                0x40242d70                tsen_meas
                0x40242e20                readvdd33
                0x40242fb4                txpwr_offset
                0x4024305c                set_txcap_reg
                0x402430dc                ram_restart_cal
                0x4024314c                wait_rfpll_cal_end
                0x402431e4                ram_rfpll_set_freq
                0x402432f0                ram_set_channel_freq
                0x402435f8                chip_60_set_channel
                0x402436e4                chip_v6_set_chan_offset
                0x40243750                chip_v6_set_chan
                0x402437c8                chip_v6_set_chan_wakeup
                0x40243848                chip_v6_rf_init
                0x40243a54                low_power_set
                0x40243ab4                test_tout
                0x40243ce4                check_data_flag
                0x40243d04                get_check_flag
 *fill*         0x40243e56        0x2 
 .irom0.text    0x40243e58     0x343d C:/Espressif/ESP8266_SDK\lib\libphy.a(phy_chip_v6.o)
                               0x39b5 (size before relaxing)
                0x40243e58                ram_tx_mac_enable
                0x40243e5c                rtc_mem_backup
                0x40243e8c                rtc_mem_recovery
                0x40243ebc                set_cal_rxdc
                0x40243f74                set_rx_gain_cal_iq
                0x402442d0                gen_rx_gain_table
                0x40244410                pbus_set_rxbbgain
                0x40244494                set_rx_gain_testchip_50
                0x402447a4                ram_get_corr_power
                0x40244894                check_data_func
                0x402448b4                do_noisefloor_lsleep_v50
                0x402448e8                do_noisefloor
                0x40244958                start_dig_rx
                0x4024499c                stop_dig_rx
                0x402449c8                chip_v6_set_chanfreq
                0x402449f8                tx_cap_init
                0x40244bac                target_power_add_backoff
                0x40244bfc                tx_pwctrl_init_cal
                0x40244d64                tx_atten_set_interp
                0x40244fd8                tx_pwctrl_init
                0x402450cc                ram_get_noisefloor
                0x402450e8                get_noisefloor_sat
                0x40245118                ram_set_noise_floor
                0x40245174                ram_start_noisefloor
                0x402451c0                read_hw_noisefloor
                0x402451ec                noise_check_loop
                0x40245348                noise_init
                0x40245544                target_power_backoff
                0x40245598                sdt_on_noise_start
                0x4024561c                chip_v6_set_chan_rx_cmp
                0x402457a4                chip_v6_set_chan_misc
                0x40245838                phy_dig_spur_set
                0x40245b98                phy_dig_spur_prot
                0x40245dd0                chip_v6_rxmax_ext_dig
                0x40245e1c                chip_v6_rxmax_ext
                0x40245ed0                phy_bb_rx_cfg
                0x40246280                uart_wait_idle
                0x402462b8                phy_pbus_soc_cfg
                0x4024637c                phy_gpio_cfg
                0x402466c4                tx_cont_en
                0x4024676c                tx_cont_dis
                0x402467c0                tx_cont_cfg
                0x402467e4                chip_v6_initialize_bb
                0x40246984                periodic_cal
                0x40246a88                bbpll_cal
                0x40246b20                periodic_cal_top
                0x40246b80                register_chipv6_phy_init_param
                0x40246e04                change_bbpll160_sleep
                0x40246ef4                change_bbpll160
                0x40246f2c                set_crystal_uart
                0x40246fa4                ant_switch_init
                0x40247090                register_chipv6_phy
 *fill*         0x40247295        0x3 
 .irom0.text    0x40247298     0x254b C:/Espressif/ESP8266_SDK\lib\libphy.a(phy_chip_v6_cal.o)
                               0x27e3 (size before relaxing)
                0x40247298                txbbgain2dcoindex
                0x402472b8                dcoindex2txbbgain
                0x402472dc                init_cal_dcoffset
                0x402473a0                set_rfanagain_dc_reg
                0x4024743c                set_txdc_pbus
                0x402474a8                get_rf_gain_qdb
                0x402474d0                correct_rf_ana_gain
                0x402475d8                get_sar_dout
                0x40247670                cal_rf_ana_gain
                0x40247748                meas_tone_pwr_db
                0x402477b8                tx_pwr_backoff
                0x40247904                get_fcc_1m2m_pwr_offset
                0x40247940                ram_set_txbb_atten
                0x402479d4                txiq_get_mis_pwr
                0x40247a78                txiq_cover
                0x40247c94                ram_rfcal_txiq
                0x40247f04                rc_cal
                0x402480c0                get_target_power_offset
                0x402481b4                get_pwctrl_correct
                0x4024820c                tx_pwctrl_cal
                0x4024854c                tx_pwctrl_bg_init
                0x402485bc                tx_pwctrl_background
                0x402486ec                read_sar_dout
                0x40248750                ram_get_fm_sar_dout
                0x402487f4                ram_cal_tos_v60
                0x402489d4                ram_get_bb_atten
                0x40248a04                ram_rfcal_txcap
                0x40248bc8                ram_rfcal_pwrctrl
                0x40248de4                ram_rxiq_get_mis
                0x40248fb4                ram_rxiq_cover_mg_mp
                0x40249158                ram_rfcal_rxiq
                0x40249364                dpd_scale_set
                0x402493ac                dpd_mem_write
                0x40249434                dpd_init
 *fill*         0x402497e3        0x1 
 .irom0.text    0x402497e4      0x269 C:/Espressif/ESP8266_SDK\lib\libphy.a(phy_chip_v6_unused.o)
                                0x2fd (size before relaxing)
                0x402497e4                chip_v6_set_sense
                0x402497e8                chip_v6_get_sense
                0x402497ec                chip_v6_unset_chanfreq
                0x402497f8                data_collect
                0x402498cc                operation_test
                0x40249944                slop_wdt_feed
                0x40249958                slop_test
                0x40249a04                wd_reset_cnt
 *fill*         0x40249a4d        0x3 
 .irom0.text    0x40249a50      0xbfa C:/Espressif/ESP8266_SDK\lib\libphy.a(phy_sleep.o)
                                0xe02 (size before relaxing)
                0x40249a50                pm_usec2rtc
                0x40249a84                pm_rtc2usec
                0x40249a94                pm_set_sleep_cycles
                0x40249abc                pm_sleep_opt
                0x40249bac                pm_wakeup_opt
                0x40249be4                get_chip_version
                0x40249c24                pm_sleep_opt_bb_off
                0x40249c64                pm_sleep_opt_bb_on
                0x40249cb0                pm_set_pll_xtal_wait_time
                0x40249cf8                pm_prepare_to_sleep
                0x40249d1c                pm_sdio_nidle
                0x40249d98                pm_goto_sleep
                0x40249e14                pm_wait4wakeup
                0x40249e4c                pm_open_rf
                0x40249e94                pm_sleep_set_mac
                0x40249f18                pm_set_wakeup_mac
                0x40249fb4                pm_check_mac_idle
                0x4024a00c                pm_set_sleep_btco
                0x4024a0ac                pm_set_wakeup_btco
                0x4024a1c4                pm_set_sleep_mode
                0x4024a294                pm_unmask_bt
                0x4024a2f4                pm_wakeup_init
                0x4024a4f0                sleep_opt_8266
                0x4024a510                sleep_opt_bb_on_8266
                0x4024a548                sleep_reset_analog_rtcreg_8266
 *fill*         0x4024a64a        0x2 
 .irom0.text    0x4024a64c       0xde C:/Espressif/ESP8266_SDK\lib\libpp.a(lmac.o)
                                 0xf2 (size before relaxing)
                0x4024a650                lmacInitAc
                0x4024a684                lmacInit
 *fill*         0x4024a72a        0x2 
 .irom0.text    0x4024a72c     0x1979 C:/Espressif/ESP8266_SDK\lib\libpp.a(pm.o)
                               0x1ef9 (size before relaxing)
                0x4024a734                pm_rtc_clock_cali_proc
                0x4024a76c                pm_set_sleep_time
                0x4024aa54                pm_rf_is_closed
                0x4024aa80                pm_set_sleep_type_from_upper
                0x4024ab2c                pm_get_sleep_type
                0x4024ad0c                uart_tx_flush
                0x4024ad20                pm_suspend
                0x4024afc8                pm_shutdown
                0x4024b0a8                pm_reset_idle_sleep
                0x4024b0e8                pm_idle_sleep
                0x4024b0f4                pm_open
                0x4024b1cc                pm_onBcnRx
                0x4024ba98                pm_enable_gpio_wakeup
                0x4024badc                pm_attach
                0x4024bbdc                pm_send_nullfunc
                0x4024bda0                pm_is_waked
                0x4024bdb8                pm_is_open
                0x4024bdd0                pm_scan_lock
                0x4024bdfc                pm_try_scan_unlock
                0x4024be14                pm_force_scan_unlock
                0x4024bec8                pm_scan_unlocked
                0x4024bedc                pm_allow_tx
                0x4024befc                pm_assoc_parse
                0x4024bf14                pm_set_addr
                0x4024bf34                pm_sleep_for
                0x4024bf68                pm_post
                0x4024c064                pm_get_idle_wait_time
 *fill*         0x4024c0a5        0x3 
 .irom0.text    0x4024c0a8      0xa09 C:/Espressif/ESP8266_SDK\lib\libpp.a(pp.o)
                                0xb95 (size before relaxing)
                0x4024c0ac                RxNodeNum
                0x4024c0c4                TxNodeNum
                0x4024c0e0                pp_disable_noise_timer
                0x4024c0fc                pp_enable_noise_timer
                0x4024c17c                pp_noise_test
                0x4024c194                pp_disable_idle_timer
                0x4024c1b8                pp_enable_idle_timer
                0x4024c1e8                pp_try_enable_idle_timer
                0x4024c204                ppPeocessRxPktHdr
                0x4024c478                ppTxPkt
                0x4024c59c                ppRegisterTxCallback
                0x4024c5d0                pp_tx_idle_timeout
                0x4024c860                pp_attach
 *fill*         0x4024cab1        0x3 
 .irom0.text    0x4024cab4      0x296 C:/Espressif/ESP8266_SDK\lib\libpp.a(rate_control.o)
                                0x2a2 (size before relaxing)
                0x4024cd00                RC_SetBasicRate
 *fill*         0x4024cd4a        0x2 
 .irom0.text    0x4024cd4c      0x411 C:/Espressif/ESP8266_SDK\lib\libpp.a(trc.o)
                                0x46d (size before relaxing)
                0x4024cd78                rcUpdatePhyMode
                0x4024ce54                rcAttach
                0x4024cea0                rcGetTrc
                0x4024cea8                trc_onDisconnect
                0x4024ceac                trc_onScanStart
                0x4024cecc                trc_onScanDone
                0x4024ceec                rc_enable_trc
                0x4024cfb4                rc_get_mask
                0x4024cfc8                rc_disable_trc
                0x4024d040                rc_disable_trc_by_interface
                0x4024d060                rc_get_sta_trc
                0x4024d0a0                rc_get_trc
                0x4024d110                rc_get_trc_by_index
                0x4024d130                rc_only_sta_trc
 *fill*         0x4024d15d        0x3 
 .irom0.text    0x4024d160      0x773 C:/Espressif/ESP8266_SDK\lib\libpp.a(wdev.o)
                                0x81f (size before relaxing)
                0x4024d16c                wDev_Option_Init
                0x4024d448                wDev_Initialize
                0x4024d4b0                wDevForceAck6M
                0x4024d4d0                wDev_SetMacAddress
                0x4024d570                wDev_SetRxPolicy
                0x4024d5c4                wDev_SetBssid
                0x4024d69c                wDev_ClearBssid
                0x4024d6d4                wDev_Insert_KeyEntry
                0x4024d7a8                wDev_remove_KeyEntry
                0x4024d7e8                wDev_Crypto_Conf
                0x4024d884                wDev_Crypto_Disable
                0x4024d8bc                wDevEnableRx
 *fill*         0x4024d8d3        0x1 
 .irom0.text    0x4024d8d4      0x12e C:/Espressif/ESP8266_SDK\lib\libpp.a(esf_buf.o)
                                0x146 (size before relaxing)
                0x4024d8e8                esf_buf_setup
 *fill*         0x4024da02        0x2 
 .irom0.text    0x4024da04      0x372 C:/Espressif/ESP8266_SDK\lib\libpp.a(if_hwctrl.o)
                                0x452 (size before relaxing)
                0x4024da08                ic_get_addr
                0x4024da14                ic_set_opmode
                0x4024da28                ic_enable_interface
                0x4024da78                ic_interface_enabled
                0x4024da8c                ic_disable_interface
                0x4024dad4                ic_is_pure_sta
                0x4024daf0                ic_get_ptk_alg
                0x4024db00                ic_get_gtk_alg
                0x4024db10                ic_set_ptk_alg
                0x4024db20                ic_set_gtk_alg
                0x4024db30                ic_interface_is_p2p
                0x4024dbb4                ic_set_vif
                0x4024dc20                ic_set_sta
                0x4024dcb0                ic_bss_info_update
                0x4024dd08                ic_set_key
                0x4024dd64                ic_remove_key
 *fill*         0x4024dd76        0x2 
 .irom0.text    0x4024dd78      0x2e6 C:/Espressif/ESP8266_SDK\lib\libnet80211.a(ieee80211.o)
                                0x3a6 (size before relaxing)
                0x4024de08                ieee80211_ifattach
                0x4024de58                ieee80211_mhz2ieee
                0x4024deb0                ieee80211_chan2ieee
                0x4024ded0                ieee80211_ieee2mhz
                0x4024df08                ieee80211_find_channel
                0x4024df30                ieee80211_find_channel_byieee
                0x4024df74                wifi_mode_set
 *fill*         0x4024e05e        0x2 
 .irom0.text    0x4024e060       0xae C:/Espressif/ESP8266_SDK\lib\libnet80211.a(ieee80211_crypto.o)
                                 0xb6 (size before relaxing)
                0x4024e060                ieee80211_crypto_attach
                0x4024e064                ieee80211_crypto_available
                0x4024e068                ieee80211_crypto_setkey
                0x4024e06c                ieee80211_crypto_encap
                0x4024e0bc                ieee80211_crypto_decap
 *fill*         0x4024e10e        0x2 
 .irom0.text    0x4024e110       0x50 C:/Espressif/ESP8266_SDK\lib\libnet80211.a(ieee80211_ets.o)
                0x4024e118                ieee80211_getmgtframe
 .irom0.text    0x4024e160      0xf09 C:/Espressif/ESP8266_SDK\lib\libnet80211.a(ieee80211_hostap.o)
                               0x11a9 (size before relaxing)
                0x4024e4a0                ieee80211_hostap_attach
                0x4024e558                hostap_handle_timer
                0x4024e5dc                hostap_input
                0x4024eec0                wifi_softap_start
                0x4024efa8                wifi_softap_stop
 *fill*         0x4024f069        0x3 
 .irom0.text    0x4024f06c      0xa83 C:/Espressif/ESP8266_SDK\lib\libnet80211.a(ieee80211_ht.o)
                                0xb3f (size before relaxing)
                0x4024f07c                ieee80211_ht_attach
                0x4024f0cc                ieee80211_ht_node_init
                0x4024f10c                ieee80211_ht_node_cleanup
                0x4024f144                ieee80211_parse_htcap
                0x4024f21c                ieee80211_ht_updateparams
                0x4024f330                ieee80211_setup_htrates
                0x4024f404                ieee80211_setup_basic_htrates
                0x4024f76c                ieee80211_add_htcap
                0x4024f788                ieee80211_add_htcap_vendor
                0x4024f8ac                ieee80211_add_htinfo
                0x4024f8c8                ieee80211_add_htinfo_vendor
 *fill*         0x4024faef        0x1 
 .irom0.text    0x4024faf0      0x878 C:/Espressif/ESP8266_SDK\lib\libnet80211.a(ieee80211_input.o)
                                0x8e4 (size before relaxing)
                0x4024faf0                ieee80211_deliver_data
                0x4024fb38                ieee80211_decap
                0x4024fc44                ieee80211_setup_rates
                0x4024fcb0                ieee80211_alloc_challenge
                0x4024fce4                ieee80211_parse_beacon
                0x40250150                ieee80211_parse_wpa
                0x40250268                ieee80211_parse_rsn
                0x40250364                ieee80211_setup_rateset
 .irom0.text    0x40250368     0x180b C:/Espressif/ESP8266_SDK\lib\libnet80211.a(ieee80211_output.o)
                               0x1a77 (size before relaxing)
                0x4025036c                ieee80211_output_pbuf
                0x402505f0                ieee80211_send_setup
                0x4025071c                ieee80211_mgmt_output
                0x40250810                ieee80211_tx_mgt_cb
                0x40250814                ieee80211_send_nulldata
                0x40250c6c                ieee80211_add_rates
                0x40250ca4                ieee80211_add_xrates
                0x40250d40                ieee80211_send_probereq
                0x40250eec                ieee80211_getcapinfo
                0x40250f48                ieee80211_send_mgmt
                0x402514a4                ieee80211_alloc_proberesp
                0x4025169c                ieee80211_send_proberesp
                0x40251a28                ieee80211_beacon_alloc
 *fill*         0x40251b73        0x1 
 .irom0.text    0x40251b74      0x147 C:/Espressif/ESP8266_SDK\lib\libnet80211.a(ieee80211_phy.o)
                                0x16f (size before relaxing)
                0x40251b78                ieee80211_get_11g_ratetable
                0x40251b84                ieee80211_get_ratetable
                0x40251b9c                ieee80211_phy_init
                0x40251bd0                ieee80211_phy_type_get
                0x40251be0                ieee80211_setup_ratetable
                0x40251c14                ieee80211_compute_duration
                0x40251c94                ieee80211_dot11Rate_rix
 *fill*         0x40251cbb        0x1 
 .irom0.text    0x40251cbc      0x16c C:/Espressif/ESP8266_SDK\lib\libnet80211.a(ieee80211_power.o)
                                0x188 (size before relaxing)
                0x40251cbc                ieee80211_psq_init
                0x40251cdc                ieee80211_psq_cleanup
                0x40251ce4                ieee80211_set_tim
                0x40251d24                ieee80211_pwrsave
                0x40251df4                ieee80211_node_pwrsave
 .irom0.text    0x40251e28      0x15b C:/Espressif/ESP8266_SDK\lib\libnet80211.a(ieee80211_proto.o)
                                0x177 (size before relaxing)
                0x40251e2c                ieee80211_proto_attach
                0x40251e54                ieee80211_set_shortslottime
                0x40251e70                ieee80211_iserp_rateset
                0x40251f04                ieee80211_setbasicrates
                0x40251f18                ieee80211_addbasicrates
                0x40251f2c                ieee80211_wme_initparams
                0x40251f30                ieee80211_wme_updateparams
                0x40251f34                ieee80211_mlme_connect_bss
 *fill*         0x40251f83        0x1 
 .irom0.text    0x40251f84      0xcbd C:/Espressif/ESP8266_SDK\lib\libnet80211.a(ieee80211_scan.o)
                                0xf85 (size before relaxing)
                0x40251f94                ieee80211_scan_attach
                0x40252018                scan_start
                0x40252288                scan_cancel
                0x402523c4                scan_add_bssid
                0x402523e8                scan_remove_bssid
                0x402523f4                scan_hidden_ssid
                0x402523fc                scan_add_probe_ssid
                0x4025243c                scan_remove_probe_ssid
                0x40252570                scan_clear_channles
                0x402525e4                scan_set_desChan
                0x402525f0                scan_get_type
                0x402525f8                cannel_scan_connect_state
                0x40252610                scan_connect_state
                0x40252660                scan_profile_check
                0x40252854                scan_check_hidden
                0x40252970                scan_parse_beacon
 *fill*         0x40252c41        0x3 
 .irom0.text    0x40252c44      0xb2e C:/Espressif/ESP8266_SDK\lib\libnet80211.a(ieee80211_sta.o)
                                0xcbe (size before relaxing)
                0x40252c6c                sta_status_set
                0x40252ca4                ieee80211_sta_new_state
                0x40252e8c                sta_input
                0x4025321c                ieee80211_parse_wmeparams
                0x40253704                wifi_station_start
 *fill*         0x40253772        0x2 
 .irom0.text    0x40253774      0x1ee C:/Espressif/ESP8266_SDK\lib\libnet80211.a(wl_chm.o)
                                0x256 (size before relaxing)
                0x40253780                chm_init
                0x402537e8                chm_start_op
                0x40253890                chm_end_op
                0x402538dc                chm_set_current_channel
                0x4025390c                chm_freq2index
                0x40253934                chm_check_same_channel
 *fill*         0x40253962        0x2 
 .irom0.text    0x40253964     0x12a5 C:/Espressif/ESP8266_SDK\lib\libnet80211.a(wl_cnx.o)
                               0x1679 (size before relaxing)
                0x40253970                cnx_attach
                0x402539b0                cnx_sta_connect_led_timer_cb
                0x40253a0c                cnx_sta_connect_cmd
                0x40253ae0                cnx_sta_scan_cmd
                0x40253d3c                cnx_connect_timeout
                0x40253d70                cnx_start_handoff_cb
                0x40254144                cnx_bss_alloc
                0x402541f4                cnx_rc_search
                0x402542bc                cnx_add_rc
                0x402543a8                cnx_remove_rc
                0x4025447c                cnx_rc_update_rssi
                0x40254500                cnx_rc_update_state_metric
                0x4025456c                cnx_rc_update_age
                0x40254590                cnx_update_bss
                0x402545c8                cnx_update_bss_more
                0x40254764                cnx_sta_leave
                0x40254828                cnx_sta_associated
                0x40254890                cnx_node_alloc
                0x402548f0                cnx_node_remove
                0x40254964                cnx_node_search
                0x402549d0                cnx_node_leave
                0x40254a88                cnx_node_join
 *fill*         0x40254c09        0x3 
 .irom0.text    0x40254c0c      0x161 C:/Espressif/ESP8266_SDK\lib\libnet80211.a(ieee80211_action.o)
                                0x181 (size before relaxing)
                0x40254c1c                ieee80211_send_action_register
                0x40254c50                ieee80211_send_action_unregister
                0x40254c64                ieee80211_send_action
                0x40254cc8                ieee80211_recv_action_register
                0x40254cfc                ieee80211_recv_action_unregister
                0x40254d10                ieee80211_recv_action
 *fill*         0x40254d6d        0x3 
 .irom0.text    0x40254d70     0x11fe C:/Espressif/ESP8266_SDK\lib\liblwip.a(dhcp.o)
                               0x146e (size before relaxing)
                0x40254f88                dhcp_coarse_tmr
                0x40254fd0                dhcp_fine_tmr
                0x402551f8                dhcp_set_struct
                0x4025521c                dhcp_cleanup
                0x40255240                dhcp_start
                0x402552f0                dhcp_inform
                0x40255398                dhcp_network_changed
                0x402553e0                dhcp_arp_reply
                0x40255650                dhcp_renew
                0x40255850                dhcp_release
                0x40255910                dhcp_stop
 *fill*         0x40255f6e        0x2 
 .irom0.text    0x40255f70      0x8af C:/Espressif/ESP8266_SDK\lib\liblwip.a(dhcpserver.o)
                                0x9d3 (size before relaxing)
                0x40255f70                node_insert_to_list
                0x40255f8c                node_remove_from_list
                0x4025663c                dhcps_start
                0x402566a4                dhcps_stop
                0x402566f8                wifi_softap_set_dhcps_lease
                0x402567cc                dhcps_coarse_tmr
 *fill*         0x4025681f        0x1 
 .irom0.text    0x40256820      0x59f C:/Espressif/ESP8266_SDK\lib\liblwip.a(dns.o)
                                0x64f (size before relaxing)
                0x4025682c                dns_init
                0x40256880                dns_setserver
                0x402568ac                dns_getserver
                0x40256d68                dns_gethostbyname
 *fill*         0x40256dbf        0x1 
 .irom0.text    0x40256dc0      0x81b C:/Espressif/ESP8266_SDK\lib\liblwip.a(etharp.o)
                                0x8f7 (size before relaxing)
                0x40256df4                etharp_tmr
                0x40257008                etharp_cleanup_netif
                0x40257044                etharp_find_addr
                0x40257254                etharp_output
                0x40257340                etharp_query
                0x40257540                etharp_request
                0x40257564                ethernet_input
 *fill*         0x402575db        0x1 
 .irom0.text    0x402575dc       0x23 C:/Espressif/ESP8266_SDK\lib\liblwip.a(init.o)
                                 0x43 (size before relaxing)
                0x402575dc                lwip_init
 *fill*         0x402575ff        0x1 
 .irom0.text    0x40257600      0x2c8 C:/Espressif/ESP8266_SDK\lib\liblwip.a(ip_addr.o)
                                0x2e0 (size before relaxing)
                0x40257600                ip4_addr_isbroadcast
                0x4025762c                ip4_addr_netmask_valid
                0x40257670                ipaddr_addr
                0x4025768c                ipaddr_aton
                0x402577f0                ipaddr_ntoa
                0x40257804                ipaddr_ntoa_r
 .irom0.text    0x402578c8      0x5ae C:/Espressif/ESP8266_SDK\lib\liblwip.a(ip.o)
                                0x662 (size before relaxing)
                0x402578cc                ip_route
                0x40257934                ip_router
                0x402579b0                ip_input
                0x40257c28                ip_output_if
                0x40257c44                ip_output_if_opt
                0x40257e38                ip_output
                0x40257e74                ip_debug_print
 *fill*         0x40257e76        0x2 
 .irom0.text    0x40257e78      0x27d C:/Espressif/ESP8266_SDK\lib\liblwip.a(netif.o)
                                0x2c5 (size before relaxing)
                0x40257e78                netif_init
                0x40257e80                netif_add
                0x40257ee4                netif_set_addr
                0x40257f0c                netif_remove
                0x40257f68                netif_find
                0x40257fa8                netif_set_ipaddr
                0x40258010                netif_set_gw
                0x40258020                netif_set_netmask
                0x40258030                netif_set_default
                0x40258038                netif_set_up
                0x40258074                netif_set_down
                0x40258098                netif_set_link_up
                0x402580e4                netif_set_link_down
 *fill*         0x402580f5        0x3 
 .irom0.text    0x402580f8      0x622 C:/Espressif/ESP8266_SDK\lib\liblwip.a(pbuf.o)
                                0x66a (size before relaxing)
                0x402580f8                pbuf_alloc
                0x40258248                pbuf_realloc
                0x40258290                pbuf_header
                0x402582fc                pbuf_free
                0x40258374                pbuf_clen
                0x4025838c                pbuf_ref
                0x40258398                pbuf_cat
                0x402583c4                pbuf_chain
                0x402583e0                pbuf_dechain
                0x4025841c                pbuf_copy
                0x402584c0                pbuf_copy_partial
                0x40258548                pbuf_take
                0x402585ac                pbuf_coalesce
                0x402585e0                pbuf_get_at
                0x40258608                pbuf_memcmp
                0x4025867c                pbuf_memfind
                0x402586d0                pbuf_strstr
 *fill*         0x4025871a        0x2 
 .irom0.text    0x4025871c      0x1df C:/Espressif/ESP8266_SDK\lib\liblwip.a(raw.o)
                                0x233 (size before relaxing)
                0x40258724                raw_input
                0x402587ac                raw_bind
                0x402587bc                raw_connect
                0x402587cc                raw_recv
                0x402587d4                raw_sendto
                0x40258870                raw_send
                0x40258884                raw_remove
                0x402588b8                raw_new
 *fill*         0x402588fb        0x1 
 .irom0.text    0x402588fc     0x10ad C:/Espressif/ESP8266_SDK\lib\liblwip.a(tcp_in.o)
                               0x12a5 (size before relaxing)
                0x40258908                tcp_input
 *fill*         0x402599a9        0x3 
 .irom0.text    0x402599ac      0xa1e C:/Espressif/ESP8266_SDK\lib\liblwip.a(tcp.o)
                                0xb56 (size before relaxing)
                0x402599b0                tcp_tmr
                0x402599d4                tcp_close
                0x402599f8                tcp_shutdown
                0x40259a54                tcp_abandon
                0x40259ae8                tcp_abort
                0x40259b04                tcp_bind
                0x40259b94                tcp_listen_with_backlog
                0x40259c4c                tcp_update_rcv_ann_wnd
                0x40259c88                tcp_recved
                0x40259ccc                tcp_connect
                0x40259dcc                tcp_slowtmr
                0x4025a044                tcp_fasttmr
                0x4025a0c0                tcp_segs_free
                0x4025a0dc                tcp_seg_free
                0x4025a104                tcp_setprio
                0x4025a10c                tcp_recv_null
                0x4025a1bc                tcp_alloc
                0x4025a28c                tcp_new
                0x4025a2a0                tcp_arg
                0x4025a2a4                tcp_recv
                0x4025a2ac                tcp_sent
                0x4025a2b4                tcp_err
                0x4025a2bc                tcp_accept
                0x4025a2c0                tcp_poll
                0x4025a2c8                tcp_pcb_purge
                0x4025a310                tcp_pcb_remove
                0x4025a378                tcp_next_iss
                0x4025a388                tcp_eff_send_mss
                0x4025a3c0                tcp_debug_state_str
 *fill*         0x4025a3ca        0x2 
 .irom0.text    0x4025a3cc      0xe84 C:/Espressif/ESP8266_SDK\lib\liblwip.a(tcp_out.o)
                                0xf94 (size before relaxing)
                0x4025a4cc                tcp_send_fin
                0x4025a6b8                tcp_write
                0x4025a9f0                tcp_enqueue_flags
                0x4025aad4                tcp_send_empty_ack
                0x4025ab68                tcp_output
                0x4025ae70                tcp_rst
                0x4025af94                tcp_rexmit_rto
                0x4025afd0                tcp_rexmit
                0x4025b07c                tcp_rexmit_fast
                0x4025b0d4                tcp_keepalive
                0x4025b154                tcp_zero_window_probe
 .irom0.text    0x4025b250      0x2a7 C:/Espressif/ESP8266_SDK\lib\liblwip.a(timers.o)
                                0x33b (size before relaxing)
                0x4025b290                tcp_timer_needed
                0x4025b310                sys_timeouts_init
                0x4025b36c                sys_timeout
                0x4025b3e4                sys_untimeout
                0x4025b434                sys_check_timeouts
                0x4025b4e8                sys_restart_timeouts
 *fill*         0x4025b4f7        0x1 
 .irom0.text    0x4025b4f8      0x545 C:/Espressif/ESP8266_SDK\lib\liblwip.a(udp.o)
                                0x5f9 (size before relaxing)
                0x4025b4fc                udp_input
                0x4025b72c                udp_send
                0x4025b740                udp_sendto
                0x4025b790                udp_sendto_if
                0x4025b8e0                udp_bind
                0x4025b95c                udp_connect
                0x4025b9b8                udp_disconnect
                0x4025b9d0                udp_recv
                0x4025b9d8                udp_remove
                0x4025ba0c                udp_new
 *fill*         0x4025ba3d        0x3 
 .irom0.text    0x4025ba40      0x276 C:/Espressif/ESP8266_SDK\lib\liblwip.a(icmp.o)
                                0x31e (size before relaxing)
                0x4025ba44                icmp_input
                0x4025bbf8                icmp_dest_unreach
 *fill*         0x4025bcb6        0x2 
 .irom0.text    0x4025bcb8      0x5ed C:/Espressif/ESP8266_SDK\lib\liblwip.a(igmp.o)
                                0x690 (size before relaxing)
                0x4025bcc4                igmp_init
                0x4025bcd4                igmp_start
                0x4025bd10                igmp_stop
                0x4025bd70                igmp_report_groups
                0x4025bda0                igmp_lookfor_group
                0x4025be58                igmp_input
                0x4025bfb0                igmp_joingroup
                0x4025c05c                igmp_leavegroup
                0x4025c104                igmp_tmr
 *fill*         0x4025c2a5        0x3 
 .irom0.text    0x4025c2a8      0x28e C:/Espressif/ESP8266_SDK\lib\libwpa.a(ap_config.o)
                                0x2ca (size before relaxing)
                0x4025c2ac                hostapd_config_defaults_bss
                0x4025c2f4                hostapd_config_defaults
                0x4025c360                hostapd_mac_comp
                0x4025c378                hostapd_mac_comp_empty
                0x4025c3dc                hostapd_setup_wpa_psk
                0x4025c40c                hostapd_wep_key_cmp
                0x4025c45c                hostapd_maclist_found
                0x4025c4c8                hostapd_rate_found
                0x4025c4e4                hostapd_get_psk
 *fill*         0x4025c536        0x2 
 .irom0.text    0x4025c538      0x250 C:/Espressif/ESP8266_SDK\lib\libwpa.a(common.o)
                                0x28c (size before relaxing)
                0x4025c538                inc_byte_array
                0x4025c58c                hex2byte
                0x4025c5c0                hexstr2bin
                0x4025c60c                wpa_get_ntp_timestamp
                0x4025c6a0                wpa_config_parse_string
 .irom0.text    0x4025c788       0xc5 C:/Espressif/ESP8266_SDK\lib\libwpa.a(os_xtensa.o)
                                 0xd9 (size before relaxing)
                0x4025c78c                ets_strdup
                0x4025c7cc                os_get_time
                0x4025c7d0                os_random
                0x4025c7e4                os_get_random
                0x4025c824                ets_strrchr
 *fill*         0x4025c84d        0x3 
 .irom0.text    0x4025c850     0x1cbb C:/Espressif/ESP8266_SDK\lib\libwpa.a(wpa_auth.o)
                               0x1f47 (size before relaxing)
                0x4025c990                wpa_auth_for_each_sta
                0x4025cafc                wpa_init
                0x4025cb70                wpa_auth_sta_init
                0x4025cbb0                wpa_auth_sta_associated
                0x4025cc2c                wpa_auth_sta_no_wpa
                0x4025cc78                wpa_auth_sta_deinit
                0x4025cd54                wpa_receive
                0x4025d1c8                __wpa_send_eapol
                0x4025d6b0                wpa_remove_ptk
                0x4025d6fc                wpa_auth_sm_event
 *fill*         0x4025e50b        0x1 
 .irom0.text    0x4025e50c      0x569 C:/Espressif/ESP8266_SDK\lib\libwpa.a(wpa_auth_ie.o)
                                0x5d5 (size before relaxing)
                0x4025e5d0                wpa_write_rsn_ie
                0x4025e6d8                wpa_auth_gen_wpa_ie
                0x4025e75c                wpa_add_kde
                0x4025e7c8                wpa_validate_wpa_ie
                0x4025e9c8                wpa_parse_kde_ies
                0x4025ea64                wpa_auth_uses_mfp
 *fill*         0x4025ea75        0x3 
 .irom0.text    0x4025ea78     0x1468 C:/Espressif/ESP8266_SDK\lib\libwpa.a(wpa.o)
                               0x16a8 (size before relaxing)
                0x4025f9c0                wpa_sm_rx_eapol
                0x4025fb24                wpa_register
                0x4025fb50                wpa_set_profile
                0x4025fb60                wpa_set_pmk
                0x4025fb8c                wpa_set_bss
                0x4025fdc0                pp_michael_mic_failure
                0x4025fe68                eapol_txcb
                0x4025feb8                wpa_sm_set_state
 .irom0.text    0x4025fee0      0x79a C:/Espressif/ESP8266_SDK\lib\libwpa.a(wpa_common.o)
                                0x826 (size before relaxing)
                0x40260028                wpa_parse_wpa_ie_rsn
                0x402601bc                wpa_parse_wpa_ie_wpa
                0x40260348                wpa_eapol_key_mic
                0x40260388                wpa_compare_rsn_ie
                0x402603cc                wpa_cipher_txt
                0x4026040c                wpa_pmk_to_ptk
                0x402604fc                rsn_pmkid
                0x40260530                wpa_cipher_key_len
                0x40260554                wpa_cipher_to_alg
                0x4026057c                wpa_cipher_to_suite
                0x402605d0                rsn_cipher_put_suites
                0x40260630                wpa_cipher_put_suites
 *fill*         0x4026067a        0x2 
 .irom0.text    0x4026067c      0x325 C:/Espressif/ESP8266_SDK\lib\libwpa.a(wpa_ie.o)
                                0x341 (size before relaxing)
                0x4026067c                wpa_parse_wpa_ie
                0x40260770                wpa_supplicant_parse_ies
                0x40260970                wpa_gen_wpa_ie
 *fill*         0x402609a1        0x3 
 .irom0.text    0x402609a4      0x2b7 C:/Espressif/ESP8266_SDK\lib\libwpa.a(wpa_main.o)
                                0x35f (size before relaxing)
                0x402609a4                ppInstallKey
                0x40260ab4                wpa_config_profile
                0x40260aec                wpa_config_bss
                0x40260b2c                wpa_config_assoc_ie
                0x40260b50                eagle_auth_done
                0x40260bfc                wpa_neg_complete
                0x40260c24                wpa_attach
 *fill*         0x40260c5b        0x1 
 .irom0.text    0x40260c5c       0xd6 C:/Espressif/ESP8266_SDK\lib\libwpa.a(wpas_glue.o)
                                 0xe2 (size before relaxing)
                0x40260cd0                wpa_sm_alloc_eapol
                0x40260d0c                wpa_sm_deauthenticate
                0x40260d28                wpa_sm_mlme_setprotection
                0x40260d2c                wpa_sm_get_beacon_ie
                0x40260d30                wpa_sm_disassociate
 *fill*         0x40260d32        0x2 
 .irom0.text    0x40260d34       0xdf C:/Espressif/ESP8266_SDK\lib\libwpa.a(aes-wrap.o)
                                0x103 (size before relaxing)
                0x40260d34                aes_wrap
 *fill*         0x40260e13        0x1 
 .irom0.text    0x40260e14      0x485 C:/Espressif/ESP8266_SDK\lib\libwpa.a(aes-internal-enc.o)
                                0x49d (size before relaxing)
                0x40260e18                rijndaelEncrypt
                0x40261234                aes_encrypt_init
                0x40261264                aes_encrypt
                0x40261274                aes_encrypt_deinit
 *fill*         0x40261299        0x3 
 .irom0.text    0x4026129c      0x131 C:/Espressif/ESP8266_SDK\lib\libnet80211.a(ieee80211_crypto_ccmp.o)
                                0x135 (size before relaxing)
 *fill*         0x402613cd        0x3 
 .irom0.text    0x402613d0      0x15b C:/Espressif/ESP8266_SDK\lib\libnet80211.a(ieee80211_crypto_tkip.o)
                                0x167 (size before relaxing)
 *fill*         0x4026152b        0x1 
 .irom0.text    0x4026152c       0x7c C:/Espressif/ESP8266_SDK\lib\libnet80211.a(ieee80211_crypto_wep.o)
                                 0x80 (size before relaxing)
 *fill*         0x402615a8        0x0 
 *fill*         0x402615a8        0x0 
 *fill*         0x402615a8        0x0 
 *fill*         0x402615a8        0x0 
 *fill*         0x402615a8        0x0 
 *fill*         0x402615a8        0x0 
 *fill*         0x402615a8        0x0 
 *fill*         0x402615a8        0x0 
 *fill*         0x402615a8        0x0 
 *fill*         0x402615a8        0x0 
 *fill*         0x402615a8        0x0 
 *fill*         0x402615a8        0x0 
 *fill*         0x402615a8        0x0 
 *fill*         0x402615a8        0x0 
 *fill*         0x402615a8        0x0 
 *fill*         0x402615a8        0x0 
 *fill*         0x402615a8        0x0 
 *fill*         0x402615a8        0x0 
 *fill*         0x402615a8        0x0 
 *fill*         0x402615a8        0x0 
 *fill*         0x402615a8        0x0 
 *fill*         0x402615a8        0x0 
 *fill*         0x402615a8        0x0 
 *fill*         0x402615a8        0x0 
 *fill*         0x402615a8        0x0 
 *fill*         0x402615a8        0x0 
 *fill*         0x402615a8        0x0 
 *fill*         0x402615a8        0x0 
 *fill*         0x402615a8        0x0 
 *fill*         0x402615a8        0x0 
 *fill*         0x402615a8        0x0 
 *fill*         0x402615a8        0x0 
 *fill*         0x402615a8        0x0 
 *fill*         0x402615a8        0x0 
 *fill*         0x402615a8        0x0 
 *fill*         0x402615a8        0x0 
 *fill*         0x402615a8        0x0 
 *fill*         0x402615a8        0x0 
 *fill*         0x402615a8        0x0 
 *fill*         0x402615a8        0x0 
 *fill*         0x402615a8        0x0 
 *fill*         0x402615a8        0x0 
 *fill*         0x402615a8        0x0 
 *fill*         0x402615a8        0x0 
 .irom0.text    0x402615a8      0x2b6 C:/Espressif/ESP8266_SDK\lib\liblwip.a(inet_chksum.o)
                0x40261624                inet_chksum_pseudo
                0x402616f0                inet_chksum_pseudo_partial
                0x402617d4                inet_chksum
                0x402617ec                inet_chksum_pbuf
 *fill*         0x4026185e        0x0 
 *fill*         0x4026185e        0x0 
 *fill*         0x4026185e        0x0 
 *fill*         0x4026185e        0x0 
 *fill*         0x4026185e        0x0 
 *fill*         0x4026185e        0x2 
 .irom0.text    0x40261860        0x8 C:/Espressif/ESP8266_SDK\lib\libwpa.a(wpa_debug.o)
                0x40261860                eloop_cancel_timeout
                0x40261864                eloop_register_timeout
 *fill*         0x40261868        0x0 
 *fill*         0x40261868        0x0 
 *fill*         0x40261868        0x0 
 *fill*         0x40261868        0x0 
 *fill*         0x40261868        0x0 
 *fill*         0x40261868        0x0 
 *fill*         0x40261868        0x0 
                0x40261868                _irom0_text_end = ABSOLUTE (.)
                0x400047f0                PROVIDE (Cache_Read_Disable, 0x400047f0)
                0x40004678                PROVIDE (Cache_Read_Enable, 0x40004678)
                0x400035a0                PROVIDE (FilePacketSendReqMsgProc, 0x400035a0)
                0x4000368c                PROVIDE (FlashDwnLdParamCfgMsgProc, 0x4000368c)
                0x40003538                PROVIDE (FlashDwnLdStartMsgProc, 0x40003538)
                0x40003658                PROVIDE (FlashDwnLdStopReqMsgProc, 0x40003658)
                0x40003f4c                PROVIDE (GetUartDevice, 0x40003f4c)
                0x40009900                PROVIDE (MD5Final, 0x40009900)
                0x40009818                PROVIDE (MD5Init, 0x40009818)
                0x40009834                PROVIDE (MD5Update, 0x40009834)
                0x400036c4                PROVIDE (MemDwnLdStartMsgProc, 0x400036c4)
                0x4000377c                PROVIDE (MemDwnLdStopReqMsgProc, 0x4000377c)
                0x400036f0                PROVIDE (MemPacketSendReqMsgProc, 0x400036f0)
                0x40003eac                PROVIDE (RcvMsg, 0x40003eac)
                0x4000b648                PROVIDE (SHA1Final, 0x4000b648)
                0x4000b584                PROVIDE (SHA1Init, 0x4000b584)
                0x4000a364                PROVIDE (SHA1Transform, 0x4000a364)
                0x4000b5a8                PROVIDE (SHA1Update, 0x4000b5a8)
                0x4000448c                PROVIDE (Wait_SPI_Idle, 0x4000448c)
                0x40004b44                PROVIDE (SPIEraseArea, 0x40004b44)
                0x400049b4                PROVIDE (SPIEraseBlock, 0x400049b4)
                0x40004984                PROVIDE (SPIEraseChip, 0x40004984)
                0x40004a00                PROVIDE (SPIEraseSector, 0x40004a00)
                0x400048a8                PROVIDE (SPILock, 0x400048a8)
                0x40004c2c                PROVIDE (SPIParamCfg, 0x40004c2c)
                0x40004b1c                PROVIDE (SPIRead, 0x40004b1c)
                0x400048ec                PROVIDE (SPIReadModeCnfig, 0x400048ec)
                0x40004878                PROVIDE (SPIUnlock, 0x40004878)
                0x40004a4c                PROVIDE (SPIWrite, 0x40004a4c)
                0x40003f58                PROVIDE (SelectSpiFunction, 0x40003f58)
                0x40003cf4                PROVIDE (SendMsg, 0x40003cf4)
                0x40003230                PROVIDE (UartConnCheck, 0x40003230)
                0x400037a0                PROVIDE (UartConnectProc, 0x400037a0)
                0x40003368                PROVIDE (UartDwnLdProc, 0x40003368)
                0x40003ef4                PROVIDE (UartGetCmdLn, 0x40003ef4)
                0x4000381c                PROVIDE (UartRegReadProc, 0x4000381c)
                0x400037ac                PROVIDE (UartRegWriteProc, 0x400037ac)
                0x40003c30                PROVIDE (UartRxString, 0x40003c30)
                0x40003a14                PROVIDE (Uart_Init, 0x40003a14)
                0x40000010                PROVIDE (_DebugExceptionVector, 0x40000010)
                0x40000070                PROVIDE (_DoubleExceptionVector, 0x40000070)
                0x40000030                PROVIDE (_KernelExceptionVector, 0x40000030)
                0x40000020                PROVIDE (_NMIExceptionVector, 0x40000020)
                0x400000a4                PROVIDE (_ResetHandler, 0x400000a4)
                0x40000080                PROVIDE (_ResetVector, 0x40000080)
                0x40000050                PROVIDE (_UserExceptionVector, 0x40000050)
                0x4000c538                PROVIDE (__adddf3, 0x4000c538)
                0x4000c180                PROVIDE (__addsf3, 0x4000c180)
                0x4000cb94                PROVIDE (__divdf3, 0x4000cb94)
                0x4000ce60                PROVIDE (__divdi3, 0x4000ce60)
                0x4000dc88                PROVIDE (__divsi3, 0x4000dc88)
                0x4000cdfc                PROVIDE (__extendsfdf2, 0x4000cdfc)
                0x4000ccb8                PROVIDE (__fixdfsi, 0x4000ccb8)
                0x4000cd00                PROVIDE (__fixunsdfsi, 0x4000cd00)
                0x4000c4c4                PROVIDE (__fixunssfsi, 0x4000c4c4)
                0x4000e2f0                PROVIDE (__floatsidf, 0x4000e2f0)
                0x4000e2ac                PROVIDE (__floatsisf, 0x4000e2ac)
                0x4000e2e8                PROVIDE (__floatunsidf, 0x4000e2e8)
                0x4000e2a4                PROVIDE (__floatunsisf, 0x4000e2a4)
                0x4000c8f0                PROVIDE (__muldf3, 0x4000c8f0)
                0x40000650                PROVIDE (__muldi3, 0x40000650)
                0x4000c3dc                PROVIDE (__mulsf3, 0x4000c3dc)
                0x4000c688                PROVIDE (__subdf3, 0x4000c688)
                0x4000c268                PROVIDE (__subsf3, 0x4000c268)
                0x4000cd5c                PROVIDE (__truncdfsf2, 0x4000cd5c)
                0x4000d310                PROVIDE (__udivdi3, 0x4000d310)
                0x4000e21c                PROVIDE (__udivsi3, 0x4000e21c)
                0x4000d770                PROVIDE (__umoddi3, 0x4000d770)
                0x4000e268                PROVIDE (__umodsi3, 0x4000e268)
                0x4000dcf0                PROVIDE (__umulsidi3, 0x4000dcf0)
                0x4000e388                PROVIDE (_rom_store, 0x4000e388)
                0x4000e328                PROVIDE (_rom_store_table, 0x4000e328)
                0x4000042c                PROVIDE (_start, 0x4000042c)
                0x4000dbe0                PROVIDE (_xtos_alloca_handler, 0x4000dbe0)
                0x40000598                PROVIDE (_xtos_c_wrapper_handler, 0x40000598)
                0x40000590                PROVIDE (_xtos_cause3_handler, 0x40000590)
                0x4000bda4                PROVIDE (_xtos_ints_off, 0x4000bda4)
                0x4000bd84                PROVIDE (_xtos_ints_on, 0x4000bd84)
                0x4000048c                PROVIDE (_xtos_l1int_handler, 0x4000048c)
                0x4000dbf8                PROVIDE (_xtos_p_none, 0x4000dbf8)
                0x4000056c                PROVIDE (_xtos_restore_intlevel, 0x4000056c)
                0x4000dc54                PROVIDE (_xtos_return_from_exc, 0x4000dc54)
                0x40000454                PROVIDE (_xtos_set_exception_handler, 0x40000454)
                0x4000bd70                PROVIDE (_xtos_set_interrupt_handler, 0x4000bd70)
                0x4000bd28                PROVIDE (_xtos_set_interrupt_handler_arg, 0x4000bd28)
                0x4000dbfc                PROVIDE (_xtos_set_intlevel, 0x4000dbfc)
                0x4000dc18                PROVIDE (_xtos_set_min_intlevel, 0x4000dc18)
                0x40000574                PROVIDE (_xtos_set_vpri, 0x40000574)
                0x4000dbe4                PROVIDE (_xtos_syscall_handler, 0x4000dbe4)
                0x4000dc44                PROVIDE (_xtos_unhandled_exception, 0x4000dc44)
                0x4000dc3c                PROVIDE (_xtos_unhandled_interrupt, 0x4000dc3c)
                0x400092d4                PROVIDE (aes_decrypt, 0x400092d4)
                0x400092e4                PROVIDE (aes_decrypt_deinit, 0x400092e4)
                0x40008ea4                PROVIDE (aes_decrypt_init, 0x40008ea4)
                0x40009410                PROVIDE (aes_unwrap, 0x40009410)
                0x40009648                PROVIDE (base64_decode, 0x40009648)
                0x400094fc                PROVIDE (base64_encode, 0x400094fc)
                0x4000de84                PROVIDE (bzero, 0x4000de84)
                0x40000814                PROVIDE (cmd_parse, 0x40000814)
                0x40000b24                PROVIDE (conv_str_decimal, 0x40000b24)
                0x40000cb8                PROVIDE (conv_str_hex, 0x40000cb8)
                0x40000a60                PROVIDE (convert_para_str, 0x40000a60)
                0x400026d0                PROVIDE (dtm_get_intr_mask, 0x400026d0)
                0x4000269c                PROVIDE (dtm_params_init, 0x4000269c)
                0x400026c8                PROVIDE (dtm_set_intr_mask, 0x400026c8)
                0x400026dc                PROVIDE (dtm_set_params, 0x400026dc)
                0x40001d14                PROVIDE (eprintf, 0x40001d14)
                0x40001cb8                PROVIDE (eprintf_init_buf, 0x40001cb8)
                0x40001d48                PROVIDE (eprintf_to_host, 0x40001d48)
                0x40002494                PROVIDE (est_get_printf_buf_remain_len, 0x40002494)
                0x4000249c                PROVIDE (est_reset_printf_buf_len, 0x4000249c)
                0x40002ae8                PROVIDE (ets_bzero, 0x40002ae8)
                0x40002b74                PROVIDE (ets_char2xdigit, 0x40002b74)
                0x40002ecc                PROVIDE (ets_delay_us, 0x40002ecc)
                0x400027b8                PROVIDE (ets_enter_sleep, 0x400027b8)
                0x40002578                PROVIDE (ets_external_printf, 0x40002578)
                0x40002f0c                PROVIDE (ets_get_cpu_frequency, 0x40002f0c)
                0x40002bcc                PROVIDE (ets_getc, 0x40002bcc)
                0x40002450                PROVIDE (ets_install_external_printf, 0x40002450)
                0x4000242c                PROVIDE (ets_install_putc1, 0x4000242c)
                0x4000248c                PROVIDE (ets_install_putc2, 0x4000248c)
                0x40002438                PROVIDE (ets_install_uart_printf, 0x40002438)
                0x40000f74                PROVIDE (ets_intr_lock, 0x40000f74)
                0x40000f80                PROVIDE (ets_intr_unlock, 0x40000f80)
                0x40000f88                PROVIDE (ets_isr_attach, 0x40000f88)
                0x40000f98                PROVIDE (ets_isr_mask, 0x40000f98)
                0x40000fa8                PROVIDE (ets_isr_unmask, 0x40000fa8)
                0x400018d4                PROVIDE (ets_memcmp, 0x400018d4)
                0x400018b4                PROVIDE (ets_memcpy, 0x400018b4)
                0x400018c4                PROVIDE (ets_memmove, 0x400018c4)
                0x400018a4                PROVIDE (ets_memset, 0x400018a4)
                0x40000e24                PROVIDE (ets_post, 0x40000e24)
                0x400024cc                PROVIDE (ets_printf, 0x400024cc)
                0x40002be8                PROVIDE (ets_putc, 0x40002be8)
                0x40002a40                PROVIDE (ets_rtc_int_register, 0x40002a40)
                0x40000e04                PROVIDE (ets_run, 0x40000e04)
                0x40000dc0                PROVIDE (ets_set_idle_cb, 0x40000dc0)
                0x40000fbc                PROVIDE (ets_set_user_start, 0x40000fbc)
                0x40002af8                PROVIDE (ets_str2macaddr, 0x40002af8)
                0x40002aa8                PROVIDE (ets_strcmp, 0x40002aa8)
                0x40002a88                PROVIDE (ets_strcpy, 0x40002a88)
                0x40002ac8                PROVIDE (ets_strlen, 0x40002ac8)
                0x40002ab8                PROVIDE (ets_strncmp, 0x40002ab8)
                0x40002a98                PROVIDE (ets_strncpy, 0x40002a98)
                0x40002ad8                PROVIDE (ets_strstr, 0x40002ad8)
                0x40000dd0                PROVIDE (ets_task, 0x40000dd0)
                0x40002cc4                PROVIDE (ets_timer_arm, 0x40002cc4)
                0x40002d40                PROVIDE (ets_timer_disarm, 0x40002d40)
                0x40002d80                PROVIDE (ets_timer_done, 0x40002d80)
                0x40002da8                PROVIDE (ets_timer_handler_isr, 0x40002da8)
                0x40002e68                PROVIDE (ets_timer_init, 0x40002e68)
                0x40002c48                PROVIDE (ets_timer_setfn, 0x40002c48)
                0x40002544                PROVIDE (ets_uart_printf, 0x40002544)
                0x40002f04                PROVIDE (ets_update_cpu_frequency, 0x40002f04)
                0x40001f00                PROVIDE (ets_vprintf, 0x40001f00)
                0x400030f0                PROVIDE (ets_wdt_disable, 0x400030f0)
                0x40002fa0                PROVIDE (ets_wdt_enable, 0x40002fa0)
                0x40002f34                PROVIDE (ets_wdt_get_mode, 0x40002f34)
                0x40003170                PROVIDE (ets_wdt_init, 0x40003170)
                0x40003158                PROVIDE (ets_wdt_restore, 0x40003158)
                0x40001da0                PROVIDE (ets_write_char, 0x40001da0)
                0x4000091c                PROVIDE (get_first_seg, 0x4000091c)
                0x40004c50                PROVIDE (gpio_init, 0x40004c50)
                0x40004cf0                PROVIDE (gpio_input_get, 0x40004cf0)
                0x40004dcc                PROVIDE (gpio_intr_ack, 0x40004dcc)
                0x40004e28                PROVIDE (gpio_intr_handler_register, 0x40004e28)
                0x40004d88                PROVIDE (gpio_intr_pending, 0x40004d88)
                0x40004efc                PROVIDE (gpio_intr_test, 0x40004efc)
                0x40004cd0                PROVIDE (gpio_output_set, 0x40004cd0)
                0x40004d90                PROVIDE (gpio_pin_intr_state_set, 0x40004d90)
                0x40004ed4                PROVIDE (gpio_pin_wakeup_disable, 0x40004ed4)
                0x40004e90                PROVIDE (gpio_pin_wakeup_enable, 0x40004e90)
                0x40004d5c                PROVIDE (gpio_register_get, 0x40004d5c)
                0x40004d04                PROVIDE (gpio_register_set, 0x40004d04)
                0x4000a2cc                PROVIDE (hmac_md5, 0x4000a2cc)
                0x4000a160                PROVIDE (hmac_md5_vector, 0x4000a160)
                0x4000ba28                PROVIDE (hmac_sha1, 0x4000ba28)
                0x4000b8b4                PROVIDE (hmac_sha1_vector, 0x4000b8b4)
                0x40004f40                PROVIDE (lldesc_build_chain, 0x40004f40)
                0x40005050                PROVIDE (lldesc_num2link, 0x40005050)
                0x4000507c                PROVIDE (lldesc_set_owner, 0x4000507c)
                0x40000fec                PROVIDE (main, 0x40000fec)
                0x400097ac                PROVIDE (md5_vector, 0x400097ac)
                0x40001c2c                PROVIDE (mem_calloc, 0x40001c2c)
                0x400019e0                PROVIDE (mem_free, 0x400019e0)
                0x40001998                PROVIDE (mem_init, 0x40001998)
                0x40001b40                PROVIDE (mem_malloc, 0x40001b40)
                0x40001c6c                PROVIDE (mem_realloc, 0x40001c6c)
                0x40001a14                PROVIDE (mem_trim, 0x40001a14)
                0x40001c58                PROVIDE (mem_zalloc, 0x40001c58)
                0x4000dea8                PROVIDE (memcmp, 0x4000dea8)
                0x4000df48                PROVIDE (memcpy, 0x4000df48)
                0x4000e04c                PROVIDE (memmove, 0x4000e04c)
                0x4000e190                PROVIDE (memset, 0x4000e190)
                0x400031c0                PROVIDE (multofup, 0x400031c0)
                0x4000b840                PROVIDE (pbkdf2_sha1, 0x4000b840)
                0x40006b08                PROVIDE (phy_get_romfuncs, 0x40006b08)
                0x40000600                PROVIDE (rand, 0x40000600)
                0x4000dd68                PROVIDE (rc4_skip, 0x4000dd68)
                0x40003d08                PROVIDE (recv_packet, 0x40003d08)
                0x40000a04                PROVIDE (remove_head_space, 0x40000a04)
                0x40008dd0                PROVIDE (rijndaelKeySetupDec, 0x40008dd0)
                0x40009300                PROVIDE (rijndaelKeySetupEnc, 0x40009300)
                0x400060c0                PROVIDE (rom_abs_temp, 0x400060c0)
                0x40006b10                PROVIDE (rom_ana_inf_gating_en, 0x40006b10)
                0x40007a28                PROVIDE (rom_cal_tos_v50, 0x40007a28)
                0x40006f84                PROVIDE (rom_chip_50_set_channel, 0x40006f84)
                0x400060d0                PROVIDE (rom_chip_v5_disable_cca, 0x400060d0)
                0x400060ec                PROVIDE (rom_chip_v5_enable_cca, 0x400060ec)
                0x4000711c                PROVIDE (rom_chip_v5_rx_init, 0x4000711c)
                0x4000610c                PROVIDE (rom_chip_v5_sense_backoff, 0x4000610c)
                0x4000718c                PROVIDE (rom_chip_v5_tx_init, 0x4000718c)
                0x4000615c                PROVIDE (rom_dc_iq_est, 0x4000615c)
                0x400061b8                PROVIDE (rom_en_pwdet, 0x400061b8)
                0x40006238                PROVIDE (rom_get_bb_atten, 0x40006238)
                0x40006260                PROVIDE (rom_get_corr_power, 0x40006260)
                0x400062dc                PROVIDE (rom_get_fm_sar_dout, 0x400062dc)
                0x40006394                PROVIDE (rom_get_noisefloor, 0x40006394)
                0x400063b0                PROVIDE (rom_get_power_db, 0x400063b0)
                0x40007268                PROVIDE (rom_i2c_readReg, 0x40007268)
                0x4000729c                PROVIDE (rom_i2c_readReg_Mask, 0x4000729c)
                0x400072d8                PROVIDE (rom_i2c_writeReg, 0x400072d8)
                0x4000730c                PROVIDE (rom_i2c_writeReg_Mask, 0x4000730c)
                0x40006400                PROVIDE (rom_iq_est_disable, 0x40006400)
                0x40006430                PROVIDE (rom_iq_est_enable, 0x40006430)
                0x40006484                PROVIDE (rom_linear_to_db, 0x40006484)
                0x400065a4                PROVIDE (rom_mhz2ieee, 0x400065a4)
                0x40007bf0                PROVIDE (rom_pbus_dco___SA2, 0x40007bf0)
                0x4000737c                PROVIDE (rom_pbus_debugmode, 0x4000737c)
                0x40007410                PROVIDE (rom_pbus_enter_debugmode, 0x40007410)
                0x40007448                PROVIDE (rom_pbus_exit_debugmode, 0x40007448)
                0x4000747c                PROVIDE (rom_pbus_force_test, 0x4000747c)
                0x400074d8                PROVIDE (rom_pbus_rd, 0x400074d8)
                0x4000754c                PROVIDE (rom_pbus_set_rxgain, 0x4000754c)
                0x40007610                PROVIDE (rom_pbus_set_txgain, 0x40007610)
                0x40007648                PROVIDE (rom_pbus_workmode, 0x40007648)
                0x40007688                PROVIDE (rom_pbus_xpd_rx_off, 0x40007688)
                0x400076cc                PROVIDE (rom_pbus_xpd_rx_on, 0x400076cc)
                0x400076fc                PROVIDE (rom_pbus_xpd_tx_off, 0x400076fc)
                0x40007740                PROVIDE (rom_pbus_xpd_tx_on, 0x40007740)
                0x400077a0                PROVIDE (rom_pbus_xpd_tx_on__low_gain, 0x400077a0)
                0x40007804                PROVIDE (rom_phy_reset_req, 0x40007804)
                0x4000781c                PROVIDE (rom_restart_cal, 0x4000781c)
                0x40007eb4                PROVIDE (rom_rfcal_pwrctrl, 0x40007eb4)
                0x4000804c                PROVIDE (rom_rfcal_rxiq, 0x4000804c)
                0x40008264                PROVIDE (rom_rfcal_rxiq_set_reg, 0x40008264)
                0x40008388                PROVIDE (rom_rfcal_txcap, 0x40008388)
                0x40008610                PROVIDE (rom_rfcal_txiq, 0x40008610)
                0x400088b8                PROVIDE (rom_rfcal_txiq_cover, 0x400088b8)
                0x40008a70                PROVIDE (rom_rfcal_txiq_set_reg, 0x40008a70)
                0x40007868                PROVIDE (rom_rfpll_reset, 0x40007868)
                0x40007968                PROVIDE (rom_rfpll_set_freq, 0x40007968)
                0x40008b6c                PROVIDE (rom_rxiq_cover_mg_mp, 0x40008b6c)
                0x40006628                PROVIDE (rom_rxiq_get_mis, 0x40006628)
                0x40006738                PROVIDE (rom_sar_init, 0x40006738)
                0x4000678c                PROVIDE (rom_set_ana_inf_tx_scale, 0x4000678c)
                0x40006c50                PROVIDE (rom_set_channel_freq, 0x40006c50)
                0x400067c8                PROVIDE (rom_set_loopback_gain, 0x400067c8)
                0x40006830                PROVIDE (rom_set_noise_floor, 0x40006830)
                0x40006550                PROVIDE (rom_set_rxclk_en, 0x40006550)
                0x40008c6c                PROVIDE (rom_set_txbb_atten, 0x40008c6c)
                0x4000650c                PROVIDE (rom_set_txclk_en, 0x4000650c)
                0x40008d34                PROVIDE (rom_set_txiq_cal, 0x40008d34)
                0x40006874                PROVIDE (rom_start_noisefloor, 0x40006874)
                0x400068b4                PROVIDE (rom_start_tx_tone, 0x400068b4)
                0x4000698c                PROVIDE (rom_stop_tx_tone, 0x4000698c)
                0x40006a98                PROVIDE (rom_tx_mac_disable, 0x40006a98)
                0x40006ad4                PROVIDE (rom_tx_mac_enable, 0x40006ad4)
                0x40006a1c                PROVIDE (rom_txtone_linear_pwr, 0x40006a1c)
                0x400078dc                PROVIDE (rom_write_rfpll_sdm, 0x400078dc)
                0x400031b4                PROVIDE (roundup2, 0x400031b4)
                0x40002870                PROVIDE (rtc_enter_sleep, 0x40002870)
                0x400025e0                PROVIDE (rtc_get_reset_reason, 0x400025e0)
                0x400029ec                PROVIDE (rtc_intr_handler, 0x400029ec)
                0x40002668                PROVIDE (rtc_set_sleep_mode, 0x40002668)
                0x400027a4                PROVIDE (save_rxbcn_mactime, 0x400027a4)
                0x400027ac                PROVIDE (save_tsf_us, 0x400027ac)
                0x40003c80                PROVIDE (send_packet, 0x40003c80)
                0x4000ba48                PROVIDE (sha1_prf, 0x4000ba48)
                0x4000a2ec                PROVIDE (sha1_vector, 0x4000a2ec)
                0x40005180                PROVIDE (sip_alloc_to_host_evt, 0x40005180)
                0x400058a8                PROVIDE (sip_get_ptr, 0x400058a8)
                0x40005668                PROVIDE (sip_get_state, 0x40005668)
                0x4000567c                PROVIDE (sip_init_attach, 0x4000567c)
                0x4000544c                PROVIDE (sip_install_rx_ctrl_cb, 0x4000544c)
                0x4000545c                PROVIDE (sip_install_rx_data_cb, 0x4000545c)
                0x400050fc                PROVIDE (sip_post, 0x400050fc)
                0x400056c4                PROVIDE (sip_post_init, 0x400056c4)
                0x4000534c                PROVIDE (sip_reclaim_from_host_cmd, 0x4000534c)
                0x400052c0                PROVIDE (sip_reclaim_tx_data_pkt, 0x400052c0)
                0x40005808                PROVIDE (sip_send, 0x40005808)
                0x40005864                PROVIDE (sip_to_host_chain_append, 0x40005864)
                0x40005234                PROVIDE (sip_to_host_evt_send_done, 0x40005234)
                0x400060ac                PROVIDE (slc_add_credits, 0x400060ac)
                0x40005d90                PROVIDE (slc_enable, 0x40005d90)
                0x40005f24                PROVIDE (slc_from_host_chain_fetch, 0x40005f24)
                0x40005e94                PROVIDE (slc_from_host_chain_recycle, 0x40005e94)
                0x40005c50                PROVIDE (slc_init_attach, 0x40005c50)
                0x4000608c                PROVIDE (slc_init_credit, 0x4000608c)
                0x40006014                PROVIDE (slc_pause_from_host, 0x40006014)
                0x40005c1c                PROVIDE (slc_reattach, 0x40005c1c)
                0x4000603c                PROVIDE (slc_resume_from_host, 0x4000603c)
                0x40005dc0                PROVIDE (slc_select_tohost_gpio, 0x40005dc0)
                0x40005db8                PROVIDE (slc_select_tohost_gpio_mode, 0x40005db8)
                0x40005de4                PROVIDE (slc_send_to_host_chain, 0x40005de4)
                0x40006068                PROVIDE (slc_set_host_io_max_window, 0x40006068)
                0x40005f10                PROVIDE (slc_to_host_chain_recycle, 0x40005f10)
                0x4000264c                PROVIDE (software_reset, 0x4000264c)
                0x40004644                PROVIDE (spi_flash_attach, 0x40004644)
                0x400005f0                PROVIDE (srand, 0x400005f0)
                0x4000bdc8                PROVIDE (strcmp, 0x4000bdc8)
                0x4000bec8                PROVIDE (strcpy, 0x4000bec8)
                0x4000bf4c                PROVIDE (strlen, 0x4000bf4c)
                0x4000bfa8                PROVIDE (strncmp, 0x4000bfa8)
                0x4000c0a0                PROVIDE (strncpy, 0x4000c0a0)
                0x4000e1e0                PROVIDE (strstr, 0x4000e1e0)
                0x40002c64                PROVIDE (timer_insert, 0x40002c64)
                0x4000383c                PROVIDE (uartAttach, 0x4000383c)
                0x40003924                PROVIDE (uart_baudrate_detect, 0x40003924)
                0x400038a4                PROVIDE (uart_buff_switch, 0x400038a4)
                0x400039d8                PROVIDE (uart_div_modify, 0x400039d8)
                0x40003bbc                PROVIDE (uart_rx_intr_handler, 0x40003bbc)
                0x40003b8c                PROVIDE (uart_rx_one_char, 0x40003b8c)
                0x40003b64                PROVIDE (uart_rx_one_char_block, 0x40003b64)
                0x40003ec8                PROVIDE (uart_rx_readbuff, 0x40003ec8)
                0x40003b30                PROVIDE (uart_tx_one_char, 0x40003b30)
                0x4000bc40                PROVIDE (wepkey_128, 0x4000bc40)
                0x4000bb3c                PROVIDE (wepkey_64, 0x4000bb3c)
                0x40000688                PROVIDE (xthal_bcopy, 0x40000688)
                0x4000074c                PROVIDE (xthal_copy123, 0x4000074c)
                0x4000dd4c                PROVIDE (xthal_get_ccompare, 0x4000dd4c)
                0x4000dd38                PROVIDE (xthal_get_ccount, 0x4000dd38)
                0x4000dd58                PROVIDE (xthal_get_interrupt, 0x4000dd58)
                0x4000dd58                PROVIDE (xthal_get_intread, 0x4000dd58)
                0x400006c4                PROVIDE (xthal_memcpy, 0x400006c4)
                0x4000dd40                PROVIDE (xthal_set_ccompare, 0x4000dd40)
                0x4000dd60                PROVIDE (xthal_set_intclear, 0x4000dd60)
                0x4000e320                PROVIDE (xthal_spill_registers_into_stack_nw, 0x4000e320)
                0x4000e324                PROVIDE (xthal_window_spill, 0x4000e324)
                0x4000e320                PROVIDE (xthal_window_spill_nw, 0x4000e320)
                0x3fffccf0                PROVIDE (Te0, 0x3fffccf0)
                0x3fffde10                PROVIDE (UartDev, 0x3fffde10)
                0x3fffc714                PROVIDE (flashchip, 0x3fffc714)
OUTPUT(main.elf elf32-xtensa-le)

.debug_frame    0x00000000      0x118
 .debug_frame   0x00000000       0x28 main.o
 .debug_frame   0x00000028       0x30 c:/espressif/xtensa-lx106-elf/bin/../lib/gcc/xtensa-lx106-elf/4.8.2\libgcc.a(_muldi3.o)
 .debug_frame   0x00000058       0x40 c:/espressif/xtensa-lx106-elf/bin/../lib/gcc/xtensa-lx106-elf/4.8.2/../../../../xtensa-lx106-elf/lib\libc.a(rand.o)
 .debug_frame   0x00000098       0x20 c:/espressif/xtensa-lx106-elf/bin/../lib/gcc/xtensa-lx106-elf/4.8.2\libgcc.a(_popcountsi2.o)
 .debug_frame   0x000000b8       0x30 c:/espressif/xtensa-lx106-elf/bin/../lib/gcc/xtensa-lx106-elf/4.8.2\libgcc.a(_divdi3.o)
 .debug_frame   0x000000e8       0x30 c:/espressif/xtensa-lx106-elf/bin/../lib/gcc/xtensa-lx106-elf/4.8.2\libgcc.a(_umoddi3.o)

.debug_info     0x00000000     0x2f33
 .debug_info    0x00000000      0x1bb main.o
 .debug_info    0x000001bb       0xa6 bmptk_interface.o
 .debug_info    0x00000261       0xbe c:/espressif/xtensa-lx106-elf/bin/../lib/gcc/xtensa-lx106-elf/4.8.2/../../../../xtensa-lx106-elf/lib\libc.a(memcpy.o)
 .debug_info    0x0000031f       0xa0 c:/espressif/xtensa-lx106-elf/bin/../lib/gcc/xtensa-lx106-elf/4.8.2\libgcc.a(_udivsi3.o)
 .debug_info    0x000003bf       0xa0 c:/espressif/xtensa-lx106-elf/bin/../lib/gcc/xtensa-lx106-elf/4.8.2\libgcc.a(_umodsi3.o)
 .debug_info    0x0000045f      0x174 c:/espressif/xtensa-lx106-elf/bin/../lib/gcc/xtensa-lx106-elf/4.8.2\libgcc.a(_muldi3.o)
 .debug_info    0x000005d3       0xa0 c:/espressif/xtensa-lx106-elf/bin/../lib/gcc/xtensa-lx106-elf/4.8.2\libgcc.a(_umulsidi3.o)
 .debug_info    0x00000673       0xbe c:/espressif/xtensa-lx106-elf/bin/../lib/gcc/xtensa-lx106-elf/4.8.2/../../../../xtensa-lx106-elf/lib\libc.a(memset.o)
 .debug_info    0x00000731      0x85d c:/espressif/xtensa-lx106-elf/bin/../lib/gcc/xtensa-lx106-elf/4.8.2/../../../../xtensa-lx106-elf/lib\libc.a(rand.o)
 .debug_info    0x00000f8e       0xbe c:/espressif/xtensa-lx106-elf/bin/../lib/gcc/xtensa-lx106-elf/4.8.2/../../../../xtensa-lx106-elf/lib\libc.a(strlen.o)
 .debug_info    0x0000104c      0x849 c:/espressif/xtensa-lx106-elf/bin/../lib/gcc/xtensa-lx106-elf/4.8.2/../../../../xtensa-lx106-elf/lib\libc.a(impure.o)
 .debug_info    0x00001895       0xa0 c:/espressif/xtensa-lx106-elf/bin/../lib/gcc/xtensa-lx106-elf/4.8.2\libgcc.a(_divsi3.o)
 .debug_info    0x00001935       0xa0 c:/espressif/xtensa-lx106-elf/bin/../lib/gcc/xtensa-lx106-elf/4.8.2\libgcc.a(_modsi3.o)
 .debug_info    0x000019d5       0xa0 c:/espressif/xtensa-lx106-elf/bin/../lib/gcc/xtensa-lx106-elf/4.8.2\libgcc.a(_ashrdi3.o)
 .debug_info    0x00001a75       0xa1 c:/espressif/xtensa-lx106-elf/bin/../lib/gcc/xtensa-lx106-elf/4.8.2\libgcc.a(_addsubsf3.o)
 .debug_info    0x00001b16       0xa1 c:/espressif/xtensa-lx106-elf/bin/../lib/gcc/xtensa-lx106-elf/4.8.2\libgcc.a(_mulsf3.o)
 .debug_info    0x00001bb7       0xa1 c:/espressif/xtensa-lx106-elf/bin/../lib/gcc/xtensa-lx106-elf/4.8.2\libgcc.a(_divsf3.o)
 .debug_info    0x00001c58       0xa1 c:/espressif/xtensa-lx106-elf/bin/../lib/gcc/xtensa-lx106-elf/4.8.2\libgcc.a(_fixsfsi.o)
 .debug_info    0x00001cf9       0xa1 c:/espressif/xtensa-lx106-elf/bin/../lib/gcc/xtensa-lx106-elf/4.8.2\libgcc.a(_fixunssfsi.o)
 .debug_info    0x00001d9a       0xa1 c:/espressif/xtensa-lx106-elf/bin/../lib/gcc/xtensa-lx106-elf/4.8.2\libgcc.a(_floatsisf.o)
 .debug_info    0x00001e3b       0xa1 c:/espressif/xtensa-lx106-elf/bin/../lib/gcc/xtensa-lx106-elf/4.8.2\libgcc.a(_muldf3.o)
 .debug_info    0x00001edc       0xa1 c:/espressif/xtensa-lx106-elf/bin/../lib/gcc/xtensa-lx106-elf/4.8.2\libgcc.a(_divdf3.o)
 .debug_info    0x00001f7d       0xa1 c:/espressif/xtensa-lx106-elf/bin/../lib/gcc/xtensa-lx106-elf/4.8.2\libgcc.a(_fixdfsi.o)
 .debug_info    0x0000201e       0xa1 c:/espressif/xtensa-lx106-elf/bin/../lib/gcc/xtensa-lx106-elf/4.8.2\libgcc.a(_floatsidf.o)
 .debug_info    0x000020bf       0xa1 c:/espressif/xtensa-lx106-elf/bin/../lib/gcc/xtensa-lx106-elf/4.8.2\libgcc.a(_truncdfsf2.o)
 .debug_info    0x00002160       0xff c:/espressif/xtensa-lx106-elf/bin/../lib/gcc/xtensa-lx106-elf/4.8.2\libgcc.a(_popcountsi2.o)
 .debug_info    0x0000225f      0x60c c:/espressif/xtensa-lx106-elf/bin/../lib/gcc/xtensa-lx106-elf/4.8.2\libgcc.a(_divdi3.o)
 .debug_info    0x0000286b      0x61d c:/espressif/xtensa-lx106-elf/bin/../lib/gcc/xtensa-lx106-elf/4.8.2\libgcc.a(_umoddi3.o)
 .debug_info    0x00002e88       0xab c:/espressif/xtensa-lx106-elf/bin/../lib/gcc/xtensa-lx106-elf/4.8.2\libgcc.a(_popcount_tab.o)

.debug_abbrev   0x00000000      0xb4f
 .debug_abbrev  0x00000000       0xfc main.o
 .debug_abbrev  0x000000fc       0x50 bmptk_interface.o
 .debug_abbrev  0x0000014c       0x14 c:/espressif/xtensa-lx106-elf/bin/../lib/gcc/xtensa-lx106-elf/4.8.2/../../../../xtensa-lx106-elf/lib\libc.a(memcpy.o)
 .debug_abbrev  0x00000160       0x14 c:/espressif/xtensa-lx106-elf/bin/../lib/gcc/xtensa-lx106-elf/4.8.2\libgcc.a(_udivsi3.o)
 .debug_abbrev  0x00000174       0x14 c:/espressif/xtensa-lx106-elf/bin/../lib/gcc/xtensa-lx106-elf/4.8.2\libgcc.a(_umodsi3.o)
 .debug_abbrev  0x00000188       0xfd c:/espressif/xtensa-lx106-elf/bin/../lib/gcc/xtensa-lx106-elf/4.8.2\libgcc.a(_muldi3.o)
 .debug_abbrev  0x00000285       0x14 c:/espressif/xtensa-lx106-elf/bin/../lib/gcc/xtensa-lx106-elf/4.8.2\libgcc.a(_umulsidi3.o)
 .debug_abbrev  0x00000299       0x14 c:/espressif/xtensa-lx106-elf/bin/../lib/gcc/xtensa-lx106-elf/4.8.2/../../../../xtensa-lx106-elf/lib\libc.a(memset.o)
 .debug_abbrev  0x000002ad      0x1b8 c:/espressif/xtensa-lx106-elf/bin/../lib/gcc/xtensa-lx106-elf/4.8.2/../../../../xtensa-lx106-elf/lib\libc.a(rand.o)
 .debug_abbrev  0x00000465       0x14 c:/espressif/xtensa-lx106-elf/bin/../lib/gcc/xtensa-lx106-elf/4.8.2/../../../../xtensa-lx106-elf/lib\libc.a(strlen.o)
 .debug_abbrev  0x00000479      0x180 c:/espressif/xtensa-lx106-elf/bin/../lib/gcc/xtensa-lx106-elf/4.8.2/../../../../xtensa-lx106-elf/lib\libc.a(impure.o)
 .debug_abbrev  0x000005f9       0x14 c:/espressif/xtensa-lx106-elf/bin/../lib/gcc/xtensa-lx106-elf/4.8.2\libgcc.a(_divsi3.o)
 .debug_abbrev  0x0000060d       0x14 c:/espressif/xtensa-lx106-elf/bin/../lib/gcc/xtensa-lx106-elf/4.8.2\libgcc.a(_modsi3.o)
 .debug_abbrev  0x00000621       0x14 c:/espressif/xtensa-lx106-elf/bin/../lib/gcc/xtensa-lx106-elf/4.8.2\libgcc.a(_ashrdi3.o)
 .debug_abbrev  0x00000635       0x14 c:/espressif/xtensa-lx106-elf/bin/../lib/gcc/xtensa-lx106-elf/4.8.2\libgcc.a(_addsubsf3.o)
 .debug_abbrev  0x00000649       0x14 c:/espressif/xtensa-lx106-elf/bin/../lib/gcc/xtensa-lx106-elf/4.8.2\libgcc.a(_mulsf3.o)
 .debug_abbrev  0x0000065d       0x14 c:/espressif/xtensa-lx106-elf/bin/../lib/gcc/xtensa-lx106-elf/4.8.2\libgcc.a(_divsf3.o)
 .debug_abbrev  0x00000671       0x14 c:/espressif/xtensa-lx106-elf/bin/../lib/gcc/xtensa-lx106-elf/4.8.2\libgcc.a(_fixsfsi.o)
 .debug_abbrev  0x00000685       0x14 c:/espressif/xtensa-lx106-elf/bin/../lib/gcc/xtensa-lx106-elf/4.8.2\libgcc.a(_fixunssfsi.o)
 .debug_abbrev  0x00000699       0x14 c:/espressif/xtensa-lx106-elf/bin/../lib/gcc/xtensa-lx106-elf/4.8.2\libgcc.a(_floatsisf.o)
 .debug_abbrev  0x000006ad       0x14 c:/espressif/xtensa-lx106-elf/bin/../lib/gcc/xtensa-lx106-elf/4.8.2\libgcc.a(_muldf3.o)
 .debug_abbrev  0x000006c1       0x14 c:/espressif/xtensa-lx106-elf/bin/../lib/gcc/xtensa-lx106-elf/4.8.2\libgcc.a(_divdf3.o)
 .debug_abbrev  0x000006d5       0x14 c:/espressif/xtensa-lx106-elf/bin/../lib/gcc/xtensa-lx106-elf/4.8.2\libgcc.a(_fixdfsi.o)
 .debug_abbrev  0x000006e9       0x14 c:/espressif/xtensa-lx106-elf/bin/../lib/gcc/xtensa-lx106-elf/4.8.2\libgcc.a(_floatsidf.o)
 .debug_abbrev  0x000006fd       0x14 c:/espressif/xtensa-lx106-elf/bin/../lib/gcc/xtensa-lx106-elf/4.8.2\libgcc.a(_truncdfsf2.o)
 .debug_abbrev  0x00000711       0x9b c:/espressif/xtensa-lx106-elf/bin/../lib/gcc/xtensa-lx106-elf/4.8.2\libgcc.a(_popcountsi2.o)
 .debug_abbrev  0x000007ac      0x1a3 c:/espressif/xtensa-lx106-elf/bin/../lib/gcc/xtensa-lx106-elf/4.8.2\libgcc.a(_divdi3.o)
 .debug_abbrev  0x0000094f      0x1a3 c:/espressif/xtensa-lx106-elf/bin/../lib/gcc/xtensa-lx106-elf/4.8.2\libgcc.a(_umoddi3.o)
 .debug_abbrev  0x00000af2       0x5d c:/espressif/xtensa-lx106-elf/bin/../lib/gcc/xtensa-lx106-elf/4.8.2\libgcc.a(_popcount_tab.o)

.debug_loc      0x00000000     0x16d6
 .debug_loc     0x00000000       0x1f main.o
 .debug_loc     0x0000001f       0x50 c:/espressif/xtensa-lx106-elf/bin/../lib/gcc/xtensa-lx106-elf/4.8.2\libgcc.a(_muldi3.o)
 .debug_loc     0x0000006f       0x20 c:/espressif/xtensa-lx106-elf/bin/../lib/gcc/xtensa-lx106-elf/4.8.2/../../../../xtensa-lx106-elf/lib\libc.a(rand.o)
 .debug_loc     0x0000008f       0x77 c:/espressif/xtensa-lx106-elf/bin/../lib/gcc/xtensa-lx106-elf/4.8.2\libgcc.a(_popcountsi2.o)
 .debug_loc     0x00000106      0xb8b c:/espressif/xtensa-lx106-elf/bin/../lib/gcc/xtensa-lx106-elf/4.8.2\libgcc.a(_divdi3.o)
 .debug_loc     0x00000c91      0xa45 c:/espressif/xtensa-lx106-elf/bin/../lib/gcc/xtensa-lx106-elf/4.8.2\libgcc.a(_umoddi3.o)

.debug_aranges  0x00000000      0x388
 .debug_aranges
                0x00000000       0x20 main.o
 .debug_aranges
                0x00000020       0x18 bmptk_interface.o
 .debug_aranges
                0x00000038       0x20 c:/espressif/xtensa-lx106-elf/bin/../lib/gcc/xtensa-lx106-elf/4.8.2/../../../../xtensa-lx106-elf/lib\libc.a(memcpy.o)
 .debug_aranges
                0x00000058       0x20 c:/espressif/xtensa-lx106-elf/bin/../lib/gcc/xtensa-lx106-elf/4.8.2\libgcc.a(_udivsi3.o)
 .debug_aranges
                0x00000078       0x20 c:/espressif/xtensa-lx106-elf/bin/../lib/gcc/xtensa-lx106-elf/4.8.2\libgcc.a(_umodsi3.o)
 .debug_aranges
                0x00000098       0x20 c:/espressif/xtensa-lx106-elf/bin/../lib/gcc/xtensa-lx106-elf/4.8.2\libgcc.a(_muldi3.o)
 .debug_aranges
                0x000000b8       0x20 c:/espressif/xtensa-lx106-elf/bin/../lib/gcc/xtensa-lx106-elf/4.8.2\libgcc.a(_umulsidi3.o)
 .debug_aranges
                0x000000d8       0x20 c:/espressif/xtensa-lx106-elf/bin/../lib/gcc/xtensa-lx106-elf/4.8.2/../../../../xtensa-lx106-elf/lib\libc.a(memset.o)
 .debug_aranges
                0x000000f8       0x20 c:/espressif/xtensa-lx106-elf/bin/../lib/gcc/xtensa-lx106-elf/4.8.2/../../../../xtensa-lx106-elf/lib\libc.a(rand.o)
 .debug_aranges
                0x00000118       0x20 c:/espressif/xtensa-lx106-elf/bin/../lib/gcc/xtensa-lx106-elf/4.8.2/../../../../xtensa-lx106-elf/lib\libc.a(strlen.o)
 .debug_aranges
                0x00000138       0x18 c:/espressif/xtensa-lx106-elf/bin/../lib/gcc/xtensa-lx106-elf/4.8.2/../../../../xtensa-lx106-elf/lib\libc.a(impure.o)
 .debug_aranges
                0x00000150       0x20 c:/espressif/xtensa-lx106-elf/bin/../lib/gcc/xtensa-lx106-elf/4.8.2\libgcc.a(_divsi3.o)
 .debug_aranges
                0x00000170       0x20 c:/espressif/xtensa-lx106-elf/bin/../lib/gcc/xtensa-lx106-elf/4.8.2\libgcc.a(_modsi3.o)
 .debug_aranges
                0x00000190       0x20 c:/espressif/xtensa-lx106-elf/bin/../lib/gcc/xtensa-lx106-elf/4.8.2\libgcc.a(_ashrdi3.o)
 .debug_aranges
                0x000001b0       0x20 c:/espressif/xtensa-lx106-elf/bin/../lib/gcc/xtensa-lx106-elf/4.8.2\libgcc.a(_addsubsf3.o)
 .debug_aranges
                0x000001d0       0x20 c:/espressif/xtensa-lx106-elf/bin/../lib/gcc/xtensa-lx106-elf/4.8.2\libgcc.a(_mulsf3.o)
 .debug_aranges
                0x000001f0       0x20 c:/espressif/xtensa-lx106-elf/bin/../lib/gcc/xtensa-lx106-elf/4.8.2\libgcc.a(_divsf3.o)
 .debug_aranges
                0x00000210       0x20 c:/espressif/xtensa-lx106-elf/bin/../lib/gcc/xtensa-lx106-elf/4.8.2\libgcc.a(_fixsfsi.o)
 .debug_aranges
                0x00000230       0x20 c:/espressif/xtensa-lx106-elf/bin/../lib/gcc/xtensa-lx106-elf/4.8.2\libgcc.a(_fixunssfsi.o)
 .debug_aranges
                0x00000250       0x20 c:/espressif/xtensa-lx106-elf/bin/../lib/gcc/xtensa-lx106-elf/4.8.2\libgcc.a(_floatsisf.o)
 .debug_aranges
                0x00000270       0x20 c:/espressif/xtensa-lx106-elf/bin/../lib/gcc/xtensa-lx106-elf/4.8.2\libgcc.a(_muldf3.o)
 .debug_aranges
                0x00000290       0x20 c:/espressif/xtensa-lx106-elf/bin/../lib/gcc/xtensa-lx106-elf/4.8.2\libgcc.a(_divdf3.o)
 .debug_aranges
                0x000002b0       0x20 c:/espressif/xtensa-lx106-elf/bin/../lib/gcc/xtensa-lx106-elf/4.8.2\libgcc.a(_fixdfsi.o)
 .debug_aranges
                0x000002d0       0x20 c:/espressif/xtensa-lx106-elf/bin/../lib/gcc/xtensa-lx106-elf/4.8.2\libgcc.a(_floatsidf.o)
 .debug_aranges
                0x000002f0       0x20 c:/espressif/xtensa-lx106-elf/bin/../lib/gcc/xtensa-lx106-elf/4.8.2\libgcc.a(_truncdfsf2.o)
 .debug_aranges
                0x00000310       0x20 c:/espressif/xtensa-lx106-elf/bin/../lib/gcc/xtensa-lx106-elf/4.8.2\libgcc.a(_popcountsi2.o)
 .debug_aranges
                0x00000330       0x20 c:/espressif/xtensa-lx106-elf/bin/../lib/gcc/xtensa-lx106-elf/4.8.2\libgcc.a(_divdi3.o)
 .debug_aranges
                0x00000350       0x20 c:/espressif/xtensa-lx106-elf/bin/../lib/gcc/xtensa-lx106-elf/4.8.2\libgcc.a(_umoddi3.o)
 .debug_aranges
                0x00000370       0x18 c:/espressif/xtensa-lx106-elf/bin/../lib/gcc/xtensa-lx106-elf/4.8.2\libgcc.a(_popcount_tab.o)

.debug_ranges   0x00000000      0x108
 .debug_ranges  0x00000000       0x10 main.o
 .debug_ranges  0x00000010       0x60 c:/espressif/xtensa-lx106-elf/bin/../lib/gcc/xtensa-lx106-elf/4.8.2\libgcc.a(_divdi3.o)
 .debug_ranges  0x00000070       0x98 c:/espressif/xtensa-lx106-elf/bin/../lib/gcc/xtensa-lx106-elf/4.8.2\libgcc.a(_umoddi3.o)

.debug_line     0x00000000     0x2fe1
 .debug_line    0x00000000       0xc2 main.o
 .debug_line    0x000000c2       0x34 bmptk_interface.o
 .debug_line    0x000000f6      0x355 c:/espressif/xtensa-lx106-elf/bin/../lib/gcc/xtensa-lx106-elf/4.8.2/../../../../xtensa-lx106-elf/lib\libc.a(memcpy.o)
 .debug_line    0x0000044b       0xf7 c:/espressif/xtensa-lx106-elf/bin/../lib/gcc/xtensa-lx106-elf/4.8.2\libgcc.a(_udivsi3.o)
 .debug_line    0x00000542       0xc7 c:/espressif/xtensa-lx106-elf/bin/../lib/gcc/xtensa-lx106-elf/4.8.2\libgcc.a(_umodsi3.o)
 .debug_line    0x00000609       0x96 c:/espressif/xtensa-lx106-elf/bin/../lib/gcc/xtensa-lx106-elf/4.8.2\libgcc.a(_muldi3.o)
 .debug_line    0x0000069f      0x103 c:/espressif/xtensa-lx106-elf/bin/../lib/gcc/xtensa-lx106-elf/4.8.2\libgcc.a(_umulsidi3.o)
 .debug_line    0x000007a2      0x17a c:/espressif/xtensa-lx106-elf/bin/../lib/gcc/xtensa-lx106-elf/4.8.2/../../../../xtensa-lx106-elf/lib\libc.a(memset.o)
 .debug_line    0x0000091c      0x1af c:/espressif/xtensa-lx106-elf/bin/../lib/gcc/xtensa-lx106-elf/4.8.2/../../../../xtensa-lx106-elf/lib\libc.a(rand.o)
 .debug_line    0x00000acb      0x12c c:/espressif/xtensa-lx106-elf/bin/../lib/gcc/xtensa-lx106-elf/4.8.2/../../../../xtensa-lx106-elf/lib\libc.a(strlen.o)
 .debug_line    0x00000bf7      0x119 c:/espressif/xtensa-lx106-elf/bin/../lib/gcc/xtensa-lx106-elf/4.8.2/../../../../xtensa-lx106-elf/lib\libc.a(impure.o)
 .debug_line    0x00000d10      0x127 c:/espressif/xtensa-lx106-elf/bin/../lib/gcc/xtensa-lx106-elf/4.8.2\libgcc.a(_divsi3.o)
 .debug_line    0x00000e37       0xe5 c:/espressif/xtensa-lx106-elf/bin/../lib/gcc/xtensa-lx106-elf/4.8.2\libgcc.a(_modsi3.o)
 .debug_line    0x00000f1c       0x85 c:/espressif/xtensa-lx106-elf/bin/../lib/gcc/xtensa-lx106-elf/4.8.2\libgcc.a(_ashrdi3.o)
 .debug_line    0x00000fa1      0x488 c:/espressif/xtensa-lx106-elf/bin/../lib/gcc/xtensa-lx106-elf/4.8.2\libgcc.a(_addsubsf3.o)
 .debug_line    0x00001429      0x34a c:/espressif/xtensa-lx106-elf/bin/../lib/gcc/xtensa-lx106-elf/4.8.2\libgcc.a(_mulsf3.o)
 .debug_line    0x00001773      0x2e4 c:/espressif/xtensa-lx106-elf/bin/../lib/gcc/xtensa-lx106-elf/4.8.2\libgcc.a(_divsf3.o)
 .debug_line    0x00001a57       0xe0 c:/espressif/xtensa-lx106-elf/bin/../lib/gcc/xtensa-lx106-elf/4.8.2\libgcc.a(_fixsfsi.o)
 .debug_line    0x00001b37      0x110 c:/espressif/xtensa-lx106-elf/bin/../lib/gcc/xtensa-lx106-elf/4.8.2\libgcc.a(_fixunssfsi.o)
 .debug_line    0x00001c47       0xec c:/espressif/xtensa-lx106-elf/bin/../lib/gcc/xtensa-lx106-elf/4.8.2\libgcc.a(_floatsisf.o)
 .debug_line    0x00001d33      0x5f8 c:/espressif/xtensa-lx106-elf/bin/../lib/gcc/xtensa-lx106-elf/4.8.2\libgcc.a(_muldf3.o)
 .debug_line    0x0000232b      0x4a0 c:/espressif/xtensa-lx106-elf/bin/../lib/gcc/xtensa-lx106-elf/4.8.2\libgcc.a(_divdf3.o)
 .debug_line    0x000027cb       0xf2 c:/espressif/xtensa-lx106-elf/bin/../lib/gcc/xtensa-lx106-elf/4.8.2\libgcc.a(_fixdfsi.o)
 .debug_line    0x000028bd       0xce c:/espressif/xtensa-lx106-elf/bin/../lib/gcc/xtensa-lx106-elf/4.8.2\libgcc.a(_floatsidf.o)
 .debug_line    0x0000298b      0x1a0 c:/espressif/xtensa-lx106-elf/bin/../lib/gcc/xtensa-lx106-elf/4.8.2\libgcc.a(_truncdfsf2.o)
 .debug_line    0x00002b2b       0x92 c:/espressif/xtensa-lx106-elf/bin/../lib/gcc/xtensa-lx106-elf/4.8.2\libgcc.a(_popcountsi2.o)
 .debug_line    0x00002bbd      0x1dd c:/espressif/xtensa-lx106-elf/bin/../lib/gcc/xtensa-lx106-elf/4.8.2\libgcc.a(_divdi3.o)
 .debug_line    0x00002d9a      0x200 c:/espressif/xtensa-lx106-elf/bin/../lib/gcc/xtensa-lx106-elf/4.8.2\libgcc.a(_umoddi3.o)
 .debug_line    0x00002f9a       0x47 c:/espressif/xtensa-lx106-elf/bin/../lib/gcc/xtensa-lx106-elf/4.8.2\libgcc.a(_popcount_tab.o)

.debug_str      0x00000000      0x908
 .debug_str     0x00000000      0x181 main.o
                                0x1cd (size before relaxing)
 .debug_str     0x00000181       0x51 bmptk_interface.o
                                0x177 (size before relaxing)
 .debug_str     0x000001d2      0x136 c:/espressif/xtensa-lx106-elf/bin/../lib/gcc/xtensa-lx106-elf/4.8.2\libgcc.a(_muldi3.o)
                                0x1ba (size before relaxing)
 .debug_str     0x00000308      0x468 c:/espressif/xtensa-lx106-elf/bin/../lib/gcc/xtensa-lx106-elf/4.8.2/../../../../xtensa-lx106-elf/lib\libc.a(rand.o)
                                0x510 (size before relaxing)
 .debug_str     0x00000770       0xa2 c:/espressif/xtensa-lx106-elf/bin/../lib/gcc/xtensa-lx106-elf/4.8.2/../../../../xtensa-lx106-elf/lib\libc.a(impure.o)
                                0x51f (size before relaxing)
 .debug_str     0x00000812       0x25 c:/espressif/xtensa-lx106-elf/bin/../lib/gcc/xtensa-lx106-elf/4.8.2\libgcc.a(_popcountsi2.o)
                                0x19b (size before relaxing)
 .debug_str     0x00000837       0xc7 c:/espressif/xtensa-lx106-elf/bin/../lib/gcc/xtensa-lx106-elf/4.8.2\libgcc.a(_divdi3.o)
                                0x210 (size before relaxing)
 .debug_str     0x000008fe        0xa c:/espressif/xtensa-lx106-elf/bin/../lib/gcc/xtensa-lx106-elf/4.8.2\libgcc.a(_umoddi3.o)
                                0x211 (size before relaxing)
 .debug_str     0x00000000      0x185 c:/espressif/xtensa-lx106-elf/bin/../lib/gcc/xtensa-lx106-elf/4.8.2\libgcc.a(_popcount_tab.o)

.comment        0x00000000     0x13cf
 .comment       0x00000000       0x11 main.o
                                 0x12 (size before relaxing)
 .comment       0x00000000       0x12 bmptk_interface.o
 .comment       0x00000011       0x46 C:/Espressif/ESP8266_SDK\lib\libmain.a(app_main.o)
 .comment       0x00000057       0x47 C:/Espressif/ESP8266_SDK\lib\libmain.a(ets_timer.o)
 .comment       0x0000009e       0x49 C:/Espressif/ESP8266_SDK\lib\libmain.a(mem_manager.o)
 .comment       0x000000e7       0x47 C:/Espressif/ESP8266_SDK\lib\libmain.a(spi_flash.o)
 .comment       0x0000012e       0x4c C:/Espressif/ESP8266_SDK\lib\libmain.a(user_interface.o)
 .comment       0x0000017a       0x47 C:/Espressif/ESP8266_SDK\lib\libmain.a(eagle_lib.o)
 .comment       0x000001c1       0x4b C:/Espressif/ESP8266_SDK\lib\libmain.a(eagle_lwip_if.o)
 .comment       0x00000000       0x12 c:/espressif/xtensa-lx106-elf/bin/../lib/gcc/xtensa-lx106-elf/4.8.2\libgcc.a(_muldi3.o)
 .comment       0x0000020c       0x41 C:/Espressif/ESP8266_SDK\lib\libphy.a(phy.o)
 .comment       0x0000024d       0x4d C:/Espressif/ESP8266_SDK\lib\libphy.a(phy_chip_v6_ana.o)
 .comment       0x0000029a       0x49 C:/Espressif/ESP8266_SDK\lib\libphy.a(phy_chip_v6.o)
 .comment       0x000002e3       0x4d C:/Espressif/ESP8266_SDK\lib\libphy.a(phy_chip_v6_cal.o)
 .comment       0x00000330       0x50 C:/Espressif/ESP8266_SDK\lib\libphy.a(phy_chip_v6_unused.o)
 .comment       0x00000380       0x47 C:/Espressif/ESP8266_SDK\lib\libphy.a(phy_sleep.o)
 .comment       0x000003c7       0x42 C:/Espressif/ESP8266_SDK\lib\libpp.a(lmac.o)
 .comment       0x00000409       0x40 C:/Espressif/ESP8266_SDK\lib\libpp.a(pm.o)
 .comment       0x00000449       0x40 C:/Espressif/ESP8266_SDK\lib\libpp.a(pp.o)
 .comment       0x00000489       0x4a C:/Espressif/ESP8266_SDK\lib\libpp.a(rate_control.o)
 .comment       0x000004d3       0x41 C:/Espressif/ESP8266_SDK\lib\libpp.a(trc.o)
 .comment       0x00000514       0x42 C:/Espressif/ESP8266_SDK\lib\libpp.a(wdev.o)
 .comment       0x00000556       0x45 C:/Espressif/ESP8266_SDK\lib\libpp.a(esf_buf.o)
 .comment       0x0000059b       0x47 C:/Espressif/ESP8266_SDK\lib\libpp.a(if_hwctrl.o)
 .comment       0x000005e2       0x47 C:/Espressif/ESP8266_SDK\lib\libnet80211.a(ieee80211.o)
 .comment       0x00000629       0x4e C:/Espressif/ESP8266_SDK\lib\libnet80211.a(ieee80211_crypto.o)
 .comment       0x00000677       0x4b C:/Espressif/ESP8266_SDK\lib\libnet80211.a(ieee80211_ets.o)
 .comment       0x000006c2       0x4e C:/Espressif/ESP8266_SDK\lib\libnet80211.a(ieee80211_hostap.o)
 .comment       0x00000710       0x4a C:/Espressif/ESP8266_SDK\lib\libnet80211.a(ieee80211_ht.o)
 .comment       0x0000075a       0x4d C:/Espressif/ESP8266_SDK\lib\libnet80211.a(ieee80211_input.o)
 .comment       0x000007a7       0x4e C:/Espressif/ESP8266_SDK\lib\libnet80211.a(ieee80211_output.o)
 .comment       0x000007f5       0x4b C:/Espressif/ESP8266_SDK\lib\libnet80211.a(ieee80211_phy.o)
 .comment       0x00000840       0x4d C:/Espressif/ESP8266_SDK\lib\libnet80211.a(ieee80211_power.o)
 .comment       0x0000088d       0x4d C:/Espressif/ESP8266_SDK\lib\libnet80211.a(ieee80211_proto.o)
 .comment       0x000008da       0x4c C:/Espressif/ESP8266_SDK\lib\libnet80211.a(ieee80211_scan.o)
 .comment       0x00000926       0x4b C:/Espressif/ESP8266_SDK\lib\libnet80211.a(ieee80211_sta.o)
 .comment       0x00000971       0x44 C:/Espressif/ESP8266_SDK\lib\libnet80211.a(wl_chm.o)
 .comment       0x000009b5       0x44 C:/Espressif/ESP8266_SDK\lib\libnet80211.a(wl_cnx.o)
 .comment       0x000009f9       0x4e C:/Espressif/ESP8266_SDK\lib\libnet80211.a(ieee80211_action.o)
 .comment       0x00000a47       0x42 C:/Espressif/ESP8266_SDK\lib\liblwip.a(dhcp.o)
 .comment       0x00000a89       0x48 C:/Espressif/ESP8266_SDK\lib\liblwip.a(dhcpserver.o)
 .comment       0x00000ad1       0x41 C:/Espressif/ESP8266_SDK\lib\liblwip.a(dns.o)
 .comment       0x00000b12       0x44 C:/Espressif/ESP8266_SDK\lib\liblwip.a(etharp.o)
 .comment       0x00000b56       0x42 C:/Espressif/ESP8266_SDK\lib\liblwip.a(init.o)
 .comment       0x00000b98       0x45 C:/Espressif/ESP8266_SDK\lib\liblwip.a(ip_addr.o)
 .comment       0x00000bdd       0x40 C:/Espressif/ESP8266_SDK\lib\liblwip.a(ip.o)
 .comment       0x00000c1d       0x42 C:/Espressif/ESP8266_SDK\lib\liblwip.a(memp.o)
 .comment       0x00000c5f       0x43 C:/Espressif/ESP8266_SDK\lib\liblwip.a(netif.o)
 .comment       0x00000ca2       0x42 C:/Espressif/ESP8266_SDK\lib\liblwip.a(pbuf.o)
 .comment       0x00000ce4       0x41 C:/Espressif/ESP8266_SDK\lib\liblwip.a(raw.o)
 .comment       0x00000d25       0x44 C:/Espressif/ESP8266_SDK\lib\liblwip.a(tcp_in.o)
 .comment       0x00000d69       0x41 C:/Espressif/ESP8266_SDK\lib\liblwip.a(tcp.o)
 .comment       0x00000daa       0x45 C:/Espressif/ESP8266_SDK\lib\liblwip.a(tcp_out.o)
 .comment       0x00000def       0x44 C:/Espressif/ESP8266_SDK\lib\liblwip.a(timers.o)
 .comment       0x00000e33       0x41 C:/Espressif/ESP8266_SDK\lib\liblwip.a(udp.o)
 .comment       0x00000e74       0x42 C:/Espressif/ESP8266_SDK\lib\liblwip.a(icmp.o)
 .comment       0x00000eb6       0x42 C:/Espressif/ESP8266_SDK\lib\liblwip.a(igmp.o)
 .comment       0x00000ef8       0x49 C:/Espressif/ESP8266_SDK\lib\liblwip.a(inet_chksum.o)
 .comment       0x00000f41       0x47 C:/Espressif/ESP8266_SDK\lib\libwpa.a(ap_config.o)
 .comment       0x00000f88       0x44 C:/Espressif/ESP8266_SDK\lib\libwpa.a(common.o)
 .comment       0x00000fcc       0x47 C:/Espressif/ESP8266_SDK\lib\libwpa.a(os_xtensa.o)
 .comment       0x00001013       0x46 C:/Espressif/ESP8266_SDK\lib\libwpa.a(wpa_auth.o)
 .comment       0x00001059       0x49 C:/Espressif/ESP8266_SDK\lib\libwpa.a(wpa_auth_ie.o)
 .comment       0x000010a2       0x41 C:/Espressif/ESP8266_SDK\lib\libwpa.a(wpa.o)
 .comment       0x000010e3       0x48 C:/Espressif/ESP8266_SDK\lib\libwpa.a(wpa_common.o)
 .comment       0x0000112b       0x47 C:/Espressif/ESP8266_SDK\lib\libwpa.a(wpa_debug.o)
 .comment       0x00001172       0x44 C:/Espressif/ESP8266_SDK\lib\libwpa.a(wpa_ie.o)
 .comment       0x000011b6       0x46 C:/Espressif/ESP8266_SDK\lib\libwpa.a(wpa_main.o)
 .comment       0x000011fc       0x47 C:/Espressif/ESP8266_SDK\lib\libwpa.a(wpas_glue.o)
 .comment       0x00001243       0x46 C:/Espressif/ESP8266_SDK\lib\libwpa.a(aes-wrap.o)
 .comment       0x00001289       0x4e C:/Espressif/ESP8266_SDK\lib\libwpa.a(aes-internal-enc.o)
 .comment       0x00000000       0x12 c:/espressif/xtensa-lx106-elf/bin/../lib/gcc/xtensa-lx106-elf/4.8.2/../../../../xtensa-lx106-elf/lib\libc.a(rand.o)
 .comment       0x00000000       0x12 c:/espressif/xtensa-lx106-elf/bin/../lib/gcc/xtensa-lx106-elf/4.8.2/../../../../xtensa-lx106-elf/lib\libc.a(impure.o)
 .comment       0x00000000       0x12 c:/espressif/xtensa-lx106-elf/bin/../lib/gcc/xtensa-lx106-elf/4.8.2\libgcc.a(_popcountsi2.o)
 .comment       0x00000000       0x12 c:/espressif/xtensa-lx106-elf/bin/../lib/gcc/xtensa-lx106-elf/4.8.2\libgcc.a(_divdi3.o)
 .comment       0x00000000       0x12 c:/espressif/xtensa-lx106-elf/bin/../lib/gcc/xtensa-lx106-elf/4.8.2\libgcc.a(_umoddi3.o)
 .comment       0x00000000       0x12 c:/espressif/xtensa-lx106-elf/bin/../lib/gcc/xtensa-lx106-elf/4.8.2\libgcc.a(_popcount_tab.o)
 .comment       0x000012d7       0x53 C:/Espressif/ESP8266_SDK\lib\libnet80211.a(ieee80211_crypto_ccmp.o)
 .comment       0x0000132a       0x53 C:/Espressif/ESP8266_SDK\lib\libnet80211.a(ieee80211_crypto_tkip.o)
 .comment       0x0000137d       0x52 C:/Espressif/ESP8266_SDK\lib\libnet80211.a(ieee80211_crypto_wep.o)

.xtensa.info    0x00000000       0x38
 .xtensa.info   0x00000000       0x38 main.o
 .xtensa.info   0x00000000        0x0 bmptk_interface.o
 .xtensa.info   0x00000000        0x0 C:/Espressif/ESP8266_SDK\lib\libmain.a(app_main.o)
 .xtensa.info   0x00000000        0x0 C:/Espressif/ESP8266_SDK\lib\libmain.a(ets_timer.o)
 .xtensa.info   0x00000000        0x0 C:/Espressif/ESP8266_SDK\lib\libmain.a(mem_manager.o)
 .xtensa.info   0x00000000        0x0 C:/Espressif/ESP8266_SDK\lib\libmain.a(spi_flash.o)
 .xtensa.info   0x00000000        0x0 C:/Espressif/ESP8266_SDK\lib\libmain.a(user_interface.o)
 .xtensa.info   0x00000000        0x0 C:/Espressif/ESP8266_SDK\lib\libmain.a(eagle_lib.o)
 .xtensa.info   0x00000000        0x0 C:/Espressif/ESP8266_SDK\lib\libmain.a(eagle_lwip_if.o)
 .xtensa.info   0x00000000        0x0 c:/espressif/xtensa-lx106-elf/bin/../lib/gcc/xtensa-lx106-elf/4.8.2/../../../../xtensa-lx106-elf/lib\libc.a(memcpy.o)
 .xtensa.info   0x00000000        0x0 c:/espressif/xtensa-lx106-elf/bin/../lib/gcc/xtensa-lx106-elf/4.8.2\libgcc.a(_udivsi3.o)
 .xtensa.info   0x00000000        0x0 c:/espressif/xtensa-lx106-elf/bin/../lib/gcc/xtensa-lx106-elf/4.8.2\libgcc.a(_umodsi3.o)
 .xtensa.info   0x00000000        0x0 c:/espressif/xtensa-lx106-elf/bin/../lib/gcc/xtensa-lx106-elf/4.8.2\libgcc.a(_muldi3.o)
 .xtensa.info   0x00000000        0x0 c:/espressif/xtensa-lx106-elf/bin/../lib/gcc/xtensa-lx106-elf/4.8.2\libgcc.a(_umulsidi3.o)
 .xtensa.info   0x00000000        0x0 C:/Espressif/ESP8266_SDK\lib\libphy.a(phy.o)
 .xtensa.info   0x00000000        0x0 C:/Espressif/ESP8266_SDK\lib\libphy.a(phy_chip_v6_ana.o)
 .xtensa.info   0x00000000        0x0 C:/Espressif/ESP8266_SDK\lib\libphy.a(phy_chip_v6.o)
 .xtensa.info   0x00000000        0x0 C:/Espressif/ESP8266_SDK\lib\libphy.a(phy_chip_v6_cal.o)
 .xtensa.info   0x00000000        0x0 C:/Espressif/ESP8266_SDK\lib\libphy.a(phy_chip_v6_unused.o)
 .xtensa.info   0x00000000        0x0 C:/Espressif/ESP8266_SDK\lib\libphy.a(phy_sleep.o)
 .xtensa.info   0x00000000        0x0 C:/Espressif/ESP8266_SDK\lib\libpp.a(lmac.o)
 .xtensa.info   0x00000000        0x0 C:/Espressif/ESP8266_SDK\lib\libpp.a(pm.o)
 .xtensa.info   0x00000000        0x0 C:/Espressif/ESP8266_SDK\lib\libpp.a(pp.o)
 .xtensa.info   0x00000000        0x0 C:/Espressif/ESP8266_SDK\lib\libpp.a(rate_control.o)
 .xtensa.info   0x00000000        0x0 C:/Espressif/ESP8266_SDK\lib\libpp.a(trc.o)
 .xtensa.info   0x00000000        0x0 C:/Espressif/ESP8266_SDK\lib\libpp.a(wdev.o)
 .xtensa.info   0x00000000        0x0 C:/Espressif/ESP8266_SDK\lib\libpp.a(esf_buf.o)
 .xtensa.info   0x00000000        0x0 C:/Espressif/ESP8266_SDK\lib\libpp.a(if_hwctrl.o)
 .xtensa.info   0x00000000        0x0 C:/Espressif/ESP8266_SDK\lib\libnet80211.a(ieee80211.o)
 .xtensa.info   0x00000000        0x0 C:/Espressif/ESP8266_SDK\lib\libnet80211.a(ieee80211_crypto.o)
 .xtensa.info   0x00000000        0x0 C:/Espressif/ESP8266_SDK\lib\libnet80211.a(ieee80211_ets.o)
 .xtensa.info   0x00000000        0x0 C:/Espressif/ESP8266_SDK\lib\libnet80211.a(ieee80211_hostap.o)
 .xtensa.info   0x00000000        0x0 C:/Espressif/ESP8266_SDK\lib\libnet80211.a(ieee80211_ht.o)
 .xtensa.info   0x00000000        0x0 C:/Espressif/ESP8266_SDK\lib\libnet80211.a(ieee80211_input.o)
 .xtensa.info   0x00000000        0x0 C:/Espressif/ESP8266_SDK\lib\libnet80211.a(ieee80211_output.o)
 .xtensa.info   0x00000000        0x0 C:/Espressif/ESP8266_SDK\lib\libnet80211.a(ieee80211_phy.o)
 .xtensa.info   0x00000000        0x0 C:/Espressif/ESP8266_SDK\lib\libnet80211.a(ieee80211_power.o)
 .xtensa.info   0x00000000        0x0 C:/Espressif/ESP8266_SDK\lib\libnet80211.a(ieee80211_proto.o)
 .xtensa.info   0x00000000        0x0 C:/Espressif/ESP8266_SDK\lib\libnet80211.a(ieee80211_scan.o)
 .xtensa.info   0x00000000        0x0 C:/Espressif/ESP8266_SDK\lib\libnet80211.a(ieee80211_sta.o)
 .xtensa.info   0x00000000        0x0 C:/Espressif/ESP8266_SDK\lib\libnet80211.a(wl_chm.o)
 .xtensa.info   0x00000000        0x0 C:/Espressif/ESP8266_SDK\lib\libnet80211.a(wl_cnx.o)
 .xtensa.info   0x00000000        0x0 C:/Espressif/ESP8266_SDK\lib\libnet80211.a(ieee80211_action.o)
 .xtensa.info   0x00000000        0x0 C:/Espressif/ESP8266_SDK\lib\liblwip.a(dhcp.o)
 .xtensa.info   0x00000000        0x0 C:/Espressif/ESP8266_SDK\lib\liblwip.a(dhcpserver.o)
 .xtensa.info   0x00000000        0x0 C:/Espressif/ESP8266_SDK\lib\liblwip.a(dns.o)
 .xtensa.info   0x00000000        0x0 C:/Espressif/ESP8266_SDK\lib\liblwip.a(etharp.o)
 .xtensa.info   0x00000000        0x0 C:/Espressif/ESP8266_SDK\lib\liblwip.a(init.o)
 .xtensa.info   0x00000000        0x0 C:/Espressif/ESP8266_SDK\lib\liblwip.a(ip_addr.o)
 .xtensa.info   0x00000000        0x0 C:/Espressif/ESP8266_SDK\lib\liblwip.a(ip.o)
 .xtensa.info   0x00000000        0x0 C:/Espressif/ESP8266_SDK\lib\liblwip.a(memp.o)
 .xtensa.info   0x00000000        0x0 C:/Espressif/ESP8266_SDK\lib\liblwip.a(netif.o)
 .xtensa.info   0x00000000        0x0 C:/Espressif/ESP8266_SDK\lib\liblwip.a(pbuf.o)
 .xtensa.info   0x00000000        0x0 C:/Espressif/ESP8266_SDK\lib\liblwip.a(raw.o)
 .xtensa.info   0x00000000        0x0 C:/Espressif/ESP8266_SDK\lib\liblwip.a(tcp_in.o)
 .xtensa.info   0x00000000        0x0 C:/Espressif/ESP8266_SDK\lib\liblwip.a(tcp.o)
 .xtensa.info   0x00000000        0x0 C:/Espressif/ESP8266_SDK\lib\liblwip.a(tcp_out.o)
 .xtensa.info   0x00000000        0x0 C:/Espressif/ESP8266_SDK\lib\liblwip.a(timers.o)
 .xtensa.info   0x00000000        0x0 C:/Espressif/ESP8266_SDK\lib\liblwip.a(udp.o)
 .xtensa.info   0x00000000        0x0 C:/Espressif/ESP8266_SDK\lib\liblwip.a(icmp.o)
 .xtensa.info   0x00000000        0x0 C:/Espressif/ESP8266_SDK\lib\liblwip.a(igmp.o)
 .xtensa.info   0x00000000        0x0 C:/Espressif/ESP8266_SDK\lib\liblwip.a(inet_chksum.o)
 .xtensa.info   0x00000000        0x0 C:/Espressif/ESP8266_SDK\lib\libwpa.a(ap_config.o)
 .xtensa.info   0x00000000        0x0 C:/Espressif/ESP8266_SDK\lib\libwpa.a(common.o)
 .xtensa.info   0x00000000        0x0 C:/Espressif/ESP8266_SDK\lib\libwpa.a(os_xtensa.o)
 .xtensa.info   0x00000000        0x0 C:/Espressif/ESP8266_SDK\lib\libwpa.a(wpa_auth.o)
 .xtensa.info   0x00000000        0x0 C:/Espressif/ESP8266_SDK\lib\libwpa.a(wpa_auth_ie.o)
 .xtensa.info   0x00000000        0x0 C:/Espressif/ESP8266_SDK\lib\libwpa.a(wpa.o)
 .xtensa.info   0x00000000        0x0 C:/Espressif/ESP8266_SDK\lib\libwpa.a(wpa_common.o)
 .xtensa.info   0x00000000        0x0 C:/Espressif/ESP8266_SDK\lib\libwpa.a(wpa_debug.o)
 .xtensa.info   0x00000000        0x0 C:/Espressif/ESP8266_SDK\lib\libwpa.a(wpa_ie.o)
 .xtensa.info   0x00000000        0x0 C:/Espressif/ESP8266_SDK\lib\libwpa.a(wpa_main.o)
 .xtensa.info   0x00000000        0x0 C:/Espressif/ESP8266_SDK\lib\libwpa.a(wpas_glue.o)
 .xtensa.info   0x00000000        0x0 C:/Espressif/ESP8266_SDK\lib\libwpa.a(aes-wrap.o)
 .xtensa.info   0x00000000        0x0 C:/Espressif/ESP8266_SDK\lib\libwpa.a(aes-internal-enc.o)
 .xtensa.info   0x00000000        0x0 c:/espressif/xtensa-lx106-elf/bin/../lib/gcc/xtensa-lx106-elf/4.8.2/../../../../xtensa-lx106-elf/lib\libc.a(memset.o)
 .xtensa.info   0x00000000        0x0 c:/espressif/xtensa-lx106-elf/bin/../lib/gcc/xtensa-lx106-elf/4.8.2/../../../../xtensa-lx106-elf/lib\libc.a(rand.o)
 .xtensa.info   0x00000000        0x0 c:/espressif/xtensa-lx106-elf/bin/../lib/gcc/xtensa-lx106-elf/4.8.2/../../../../xtensa-lx106-elf/lib\libc.a(strlen.o)
 .xtensa.info   0x00000000        0x0 c:/espressif/xtensa-lx106-elf/bin/../lib/gcc/xtensa-lx106-elf/4.8.2/../../../../xtensa-lx106-elf/lib\libc.a(impure.o)
 .xtensa.info   0x00000000        0x0 c:/espressif/xtensa-lx106-elf/bin/../lib/gcc/xtensa-lx106-elf/4.8.2\libgcc.a(_divsi3.o)
 .xtensa.info   0x00000000        0x0 c:/espressif/xtensa-lx106-elf/bin/../lib/gcc/xtensa-lx106-elf/4.8.2\libgcc.a(_modsi3.o)
 .xtensa.info   0x00000000        0x0 c:/espressif/xtensa-lx106-elf/bin/../lib/gcc/xtensa-lx106-elf/4.8.2\libgcc.a(_ashrdi3.o)
 .xtensa.info   0x00000000        0x0 c:/espressif/xtensa-lx106-elf/bin/../lib/gcc/xtensa-lx106-elf/4.8.2\libgcc.a(_addsubsf3.o)
 .xtensa.info   0x00000000        0x0 c:/espressif/xtensa-lx106-elf/bin/../lib/gcc/xtensa-lx106-elf/4.8.2\libgcc.a(_mulsf3.o)
 .xtensa.info   0x00000000        0x0 c:/espressif/xtensa-lx106-elf/bin/../lib/gcc/xtensa-lx106-elf/4.8.2\libgcc.a(_divsf3.o)
 .xtensa.info   0x00000000        0x0 c:/espressif/xtensa-lx106-elf/bin/../lib/gcc/xtensa-lx106-elf/4.8.2\libgcc.a(_fixsfsi.o)
 .xtensa.info   0x00000000        0x0 c:/espressif/xtensa-lx106-elf/bin/../lib/gcc/xtensa-lx106-elf/4.8.2\libgcc.a(_fixunssfsi.o)
 .xtensa.info   0x00000000        0x0 c:/espressif/xtensa-lx106-elf/bin/../lib/gcc/xtensa-lx106-elf/4.8.2\libgcc.a(_floatsisf.o)
 .xtensa.info   0x00000000        0x0 c:/espressif/xtensa-lx106-elf/bin/../lib/gcc/xtensa-lx106-elf/4.8.2\libgcc.a(_muldf3.o)
 .xtensa.info   0x00000000        0x0 c:/espressif/xtensa-lx106-elf/bin/../lib/gcc/xtensa-lx106-elf/4.8.2\libgcc.a(_divdf3.o)
 .xtensa.info   0x00000000        0x0 c:/espressif/xtensa-lx106-elf/bin/../lib/gcc/xtensa-lx106-elf/4.8.2\libgcc.a(_fixdfsi.o)
 .xtensa.info   0x00000000        0x0 c:/espressif/xtensa-lx106-elf/bin/../lib/gcc/xtensa-lx106-elf/4.8.2\libgcc.a(_floatsidf.o)
 .xtensa.info   0x00000000        0x0 c:/espressif/xtensa-lx106-elf/bin/../lib/gcc/xtensa-lx106-elf/4.8.2\libgcc.a(_truncdfsf2.o)
 .xtensa.info   0x00000000        0x0 c:/espressif/xtensa-lx106-elf/bin/../lib/gcc/xtensa-lx106-elf/4.8.2\libgcc.a(_popcountsi2.o)
 .xtensa.info   0x00000000        0x0 c:/espressif/xtensa-lx106-elf/bin/../lib/gcc/xtensa-lx106-elf/4.8.2\libgcc.a(_divdi3.o)
 .xtensa.info   0x00000000        0x0 c:/espressif/xtensa-lx106-elf/bin/../lib/gcc/xtensa-lx106-elf/4.8.2\libgcc.a(_umoddi3.o)
 .xtensa.info   0x00000000        0x0 c:/espressif/xtensa-lx106-elf/bin/../lib/gcc/xtensa-lx106-elf/4.8.2\libgcc.a(_popcount_tab.o)
 .xtensa.info   0x00000000        0x0 C:/Espressif/ESP8266_SDK\lib\libnet80211.a(ieee80211_crypto_ccmp.o)
 .xtensa.info   0x00000000        0x0 C:/Espressif/ESP8266_SDK\lib\libnet80211.a(ieee80211_crypto_tkip.o)
 .xtensa.info   0x00000000        0x0 C:/Espressif/ESP8266_SDK\lib\libnet80211.a(ieee80211_crypto_wep.o)
